(dp0
S'u_h_pb_l_robot_stationary_8'
p1
(lp2
S'-0+0'
p3
asS'u_h_pb_l_robot_stationary_9'
p4
(lp5
S'-0+0'
p6
aS'-000'
p7
aS'-0+0'
p8
aS'-0-0'
p9
aS'-0+0'
p10
aS'-000'
p11
aS'-0+0'
p12
aS'-0-0'
p13
aS'-0+0'
p14
aS'-0-0'
p15
aS'-0+0'
p16
aS'-0-0'
p17
aS'-0+0'
p18
aS'-0-0'
p19
aS'-0+0'
p20
asS'u_h_pb_r_robot_stationary_8'
p21
(lp22
S'-0-0'
p23
aS'-000'
p24
aS'-0-0'
p25
asS'ot_rotl_24'
p26
(lp27
S'+-+0'
p28
aS'0000'
p29
aS'-0-0'
p30
aS'0-+-'
p31
aS'+-+-'
p32
aS'-0-0'
p33
aS'0000'
p34
aS'+-+-'
p35
aS'0-00'
p36
aS'0-+-'
p37
aS'+---'
p38
aS'0-0-'
p39
aS'0000'
p40
aS'-000'
p41
aS'+-+-'
p42
aS'+-0-'
p43
aS'--00'
p44
aS'+0-0'
p45
aS'+-+-'
p46
aS'+-0-'
p47
aS'+---'
p48
aS'+-+-'
p49
aS'-0-0'
p50
aS'+-+-'
p51
aS'0-0-'
p52
aS'+-+-'
p53
aS'-000'
p54
aS'-0-0'
p55
aS'+-+-'
p56
aS'0-+-'
p57
aS'+-+-'
p58
aS'--+-'
p59
aS'+-+-'
p60
aS'-000'
p61
aS'+-+-'
p62
aS'--+-'
p63
aS'+-+-'
p64
aS'0-0-'
p65
aS'+-+-'
p66
aS'0-0-'
p67
aS'-0-0'
p68
aS'-000'
p69
aS'00-0'
p70
aS'+-+-'
p71
aS'--0-'
p72
aS'+-+-'
p73
aS'+0-0'
p74
aS'-000'
p75
aS'+-+-'
p76
asS'ot_rotl_25'
p77
(lp78
S'+-+-'
p79
aS'0-00'
p80
aS'0000'
p81
aS'+-+-'
p82
aS'0-00'
p83
aS'--+-'
p84
aS'----'
p85
aS'0-+-'
p86
aS'+-+-'
p87
aS'0-00'
p88
aS'-0-0'
p89
aS'+-+-'
p90
aS'0-00'
p91
aS'--+-'
p92
aS'+--0'
p93
aS'-000'
p94
aS'+-+-'
p95
aS'+-0-'
p96
aS'--0-'
p97
aS'-000'
p98
aS'+-+-'
p99
aS'0-+-'
p100
aS'+-+-'
p101
aS'+--0'
p102
aS'-0-0'
p103
aS'+-+-'
p104
aS'--+0'
p105
aS'-000'
p106
aS'+-+-'
p107
aS'+-0-'
p108
aS'+-+-'
p109
aS'00-0'
p110
aS'+-+-'
p111
aS'+-0-'
p112
aS'-0+0'
p113
aS'+-+-'
p114
aS'0-0-'
p115
aS'+-+-'
p116
aS'0-+-'
p117
aS'-000'
p118
aS'-0+0'
p119
aS'-000'
p120
aS'+-+-'
p121
aS'--+-'
p122
aS'-000'
p123
aS'+-+-'
p124
aS'--+-'
p125
aS'-000'
p126
aS'-0-0'
p127
aS'+-+-'
p128
aS'0-0-'
p129
asS'ot_rotl_26'
p130
(lp131
S'+-0-'
p132
aS'--+0'
p133
aS'0000'
p134
aS'+---'
p135
aS'--+-'
p136
aS'0000'
p137
aS'+---'
p138
aS'+-0-'
p139
aS'0-+-'
p140
aS'00-0'
p141
aS'0000'
p142
aS'+-+-'
p143
aS'0-0-'
p144
aS'+-0-'
p145
aS'-0-0'
p146
aS'+-+-'
p147
aS'+-0-'
p148
aS'--+0'
p149
aS'-0-0'
p150
aS'+-+-'
p151
aS'+-0-'
p152
aS'--+-'
p153
aS'+-+-'
p154
aS'--+0'
p155
aS'-000'
p156
aS'+-+-'
p157
aS'0-+-'
p158
aS'+-+-'
p159
aS'0-0-'
p160
aS'-000'
p161
aS'+-+-'
p162
aS'0-0-'
p163
aS'0-+-'
p164
aS'+-+-'
p165
aS'-000'
p166
aS'+-+-'
p167
aS'0---'
p168
aS'+-+-'
p169
aS'+---'
p170
aS'-0-0'
p171
aS'-000'
p172
aS'+-+-'
p173
aS'+---'
p174
aS'+-+-'
p175
aS'-0-0'
p176
aS'+-+-'
p177
aS'0000'
p178
aS'-0-0'
p179
aS'+-+-'
p180
aS'0-0-'
p181
aS'+-+-'
p182
aS'0-+-'
p183
aS'0-00'
p184
aS'-000'
p185
asS'ot_rotl_27'
p186
(lp187
S'0000'
p188
aS'+-+-'
p189
aS'+-+0'
p190
aS'+--0'
p191
aS'+-00'
p192
aS'-0+0'
p193
aS'0000'
p194
aS'+-+-'
p195
aS'+---'
p196
aS'-000'
p197
aS'0000'
p198
aS'+-+-'
p199
aS'+---'
p200
aS'--0-'
p201
aS'+-+-'
p202
aS'+---'
p203
aS'+-0-'
p204
aS'-0+0'
p205
aS'+-+-'
p206
aS'0000'
p207
aS'+-+-'
p208
aS'--+-'
p209
aS'0000'
p210
aS'+-+-'
p211
aS'-0+0'
p212
aS'+-+-'
p213
aS'0000'
p214
aS'-000'
p215
aS'+-+-'
p216
aS'-000'
p217
aS'+-0-'
p218
aS'0-+-'
p219
aS'+-+-'
p220
aS'-000'
p221
aS'+-+-'
p222
aS'--+-'
p223
aS'0000'
p224
aS'+-+-'
p225
aS'-000'
p226
aS'-0-0'
p227
aS'+-+-'
p228
aS'0000'
p229
aS'-0-0'
p230
aS'-000'
p231
aS'+-+-'
p232
aS'----'
p233
aS'-000'
p234
aS'+-+-'
p235
aS'+-0-'
p236
aS'----'
p237
aS'-0-0'
p238
aS'+-+-'
p239
aS'+-0-'
p240
aS'0-0-'
p241
aS'-0-0'
p242
aS'+-+-'
p243
aS'0-+-'
p244
aS'+-+-'
p245
aS'+0-0'
p246
aS'0000'
p247
aS'00+0'
p248
aS'+-+-'
p249
aS'+-0-'
p250
aS'+-+-'
p251
aS'0000'
p252
aS'-0-0'
p253
aS'+-+-'
p254
aS'0-+-'
p255
asS'ot_rotl_20'
p256
(lp257
S'+-0-'
p258
aS'+-+-'
p259
aS'0000'
p260
aS'+-+-'
p261
aS'----'
p262
aS'+-0-'
p263
aS'--+-'
p264
aS'+-+-'
p265
aS'-0-0'
p266
aS'00-0'
p267
aS'+-+-'
p268
aS'+---'
p269
aS'0-+-'
p270
aS'0---'
p271
aS'-0-0'
p272
aS'00+0'
p273
aS'-0-0'
p274
aS'+-+-'
p275
aS'-0-0'
p276
aS'+-+-'
p277
aS'-0-0'
p278
aS'+-+-'
p279
aS'--+-'
p280
aS'+-+-'
p281
aS'0000'
p282
aS'+-+-'
p283
aS'0-0-'
p284
aS'--0-'
p285
aS'0-0-'
p286
aS'00-0'
p287
aS'+-+-'
p288
aS'+-0-'
p289
aS'0-0-'
p290
aS'+-+-'
p291
aS'-0-0'
p292
aS'+-+-'
p293
aS'--0-'
p294
aS'+-0-'
p295
aS'+-+-'
p296
aS'0-0-'
p297
aS'+-0-'
p298
aS'+-+-'
p299
aS'0-0-'
p300
asS'ot_rotl_21'
p301
(lp302
S'+-00'
p303
aS'0000'
p304
aS'+-+-'
p305
aS'0-00'
p306
aS'+-0-'
p307
aS'+-00'
p308
aS'+--0'
p309
aS'+-0-'
p310
aS'0000'
p311
aS'+-+-'
p312
aS'+-0-'
p313
aS'+-+-'
p314
aS'+-0-'
p315
aS'0000'
p316
aS'+-+-'
p317
aS'0-0-'
p318
aS'+-0-'
p319
aS'0000'
p320
aS'+-+-'
p321
aS'0-+-'
p322
aS'+-+-'
p323
aS'0000'
p324
aS'+-+-'
p325
aS'+-0-'
p326
aS'+-+-'
p327
aS'-000'
p328
aS'+-+-'
p329
aS'--+-'
p330
aS'-000'
p331
aS'+-+-'
p332
aS'0-+-'
p333
aS'+-+-'
p334
aS'+-0-'
p335
aS'-000'
p336
aS'0000'
p337
aS'+-+-'
p338
aS'0---'
p339
aS'+-+-'
p340
aS'0000'
p341
aS'+-+-'
p342
aS'0-0-'
p343
aS'-000'
p344
aS'-0-0'
p345
aS'+-+-'
p346
aS'--00'
p347
aS'-0-0'
p348
aS'+-+-'
p349
aS'0-0-'
p350
aS'--+-'
p351
aS'--0-'
p352
aS'-000'
p353
aS'+-+-'
p354
aS'----'
p355
aS'+-+-'
p356
aS'0-+-'
p357
aS'--0-'
p358
aS'-0-0'
p359
aS'-000'
p360
aS'+-+-'
p361
aS'0-0-'
p362
aS'+0-0'
p363
aS'-0-0'
p364
aS'+-+-'
p365
aS'+-0-'
p366
aS'+--0'
p367
aS'-0-0'
p368
aS'+-+-'
p369
aS'0-0-'
p370
aS'00-0'
p371
aS'+-+-'
p372
aS'00+0'
p373
aS'+-+-'
p374
aS'-0-0'
p375
aS'+-+-'
p376
aS'+-0-'
p377
aS'+-+-'
p378
asS'ot_rotl_22'
p379
(lp380
S'0000'
p381
aS'+-00'
p382
aS'0000'
p383
aS'+-+-'
p384
aS'0000'
p385
aS'+-00'
p386
aS'+---'
p387
aS'+-00'
p388
aS'+-0-'
p389
aS'-0+0'
p390
aS'0000'
p391
aS'+0-0'
p392
aS'+-+-'
p393
aS'+-0-'
p394
aS'--+0'
p395
aS'00-0'
p396
aS'+-+-'
p397
aS'0-+-'
p398
aS'0-0-'
p399
aS'+-+-'
p400
aS'-0+0'
p401
aS'0000'
p402
aS'+-+-'
p403
aS'0-+-'
p404
aS'+-+-'
p405
aS'0-0-'
p406
aS'0-+-'
p407
aS'0000'
p408
aS'+-+-'
p409
aS'0-+-'
p410
aS'+-+-'
p411
aS'0000'
p412
aS'-0-0'
p413
aS'+-+-'
p414
aS'00-0'
p415
aS'-000'
p416
aS'+-+-'
p417
aS'+---'
p418
aS'--00'
p419
aS'-000'
p420
aS'+-0-'
p421
aS'0-+-'
p422
aS'+-+-'
p423
aS'+---'
p424
aS'-0+0'
p425
aS'+-+-'
p426
aS'-0+0'
p427
aS'-000'
p428
aS'+-+-'
p429
aS'--+-'
p430
aS'+-+-'
p431
aS'-000'
p432
aS'+-+-'
p433
aS'0-+-'
p434
aS'-0-0'
p435
aS'-000'
p436
aS'+-+-'
p437
aS'--+-'
p438
aS'-0-0'
p439
aS'+-+-'
p440
aS'+---'
p441
aS'+-+-'
p442
aS'0-+-'
p443
aS'+0-0'
p444
aS'-0-0'
p445
asS'ot_rotl_23'
p446
(lp447
S'+-00'
p448
aS'0000'
p449
aS'+-+-'
p450
aS'+-00'
p451
aS'0000'
p452
aS'-0+0'
p453
aS'+---'
p454
aS'+-0-'
p455
aS'+-+-'
p456
aS'--+-'
p457
aS'0--0'
p458
aS'+-0-'
p459
aS'0000'
p460
aS'-0+0'
p461
aS'+-+-'
p462
aS'0-0-'
p463
aS'-0+0'
p464
aS'0000'
p465
aS'+-+-'
p466
aS'0-+-'
p467
aS'+-+-'
p468
aS'0-00'
p469
aS'-0+0'
p470
aS'+-+-'
p471
aS'0-+-'
p472
aS'+-+-'
p473
aS'0-0-'
p474
aS'-000'
p475
aS'+-+-'
p476
aS'0---'
p477
aS'+-+-'
p478
aS'--0-'
p479
aS'-000'
p480
aS'+-+-'
p481
aS'--00'
p482
aS'+-+-'
p483
aS'-000'
p484
aS'-0-0'
p485
aS'+-+-'
p486
aS'0000'
p487
aS'+-+-'
p488
aS'-0-0'
p489
aS'+-+-'
p490
aS'+---'
p491
aS'0-+-'
p492
aS'+-+-'
p493
aS'0-0-'
p494
aS'-0-0'
p495
aS'+-+-'
p496
aS'0000'
p497
aS'0-0-'
p498
aS'+-0-'
p499
aS'+-+-'
p500
aS'0-+-'
p501
aS'0000'
p502
aS'00-0'
p503
aS'-0-0'
p504
aS'+-+-'
p505
aS'0-0-'
p506
aS'-0-0'
p507
aS'-000'
p508
aS'+-+-'
p509
aS'-000'
p510
asS'ot_rotl_28'
p511
(lp512
S'+-+-'
p513
aS'0000'
p514
aS'+-+-'
p515
aS'+-00'
p516
aS'+---'
p517
aS'00+0'
p518
aS'0000'
p519
aS'+0-0'
p520
aS'+-+-'
p521
aS'+-00'
p522
aS'+-0-'
p523
aS'+0+0'
p524
aS'+0-0'
p525
aS'0000'
p526
aS'+-+-'
p527
aS'00+0'
p528
aS'0000'
p529
aS'-0+0'
p530
aS'0000'
p531
aS'+-+-'
p532
aS'--0-'
p533
aS'0000'
p534
aS'+-+-'
p535
aS'+---'
p536
aS'--+-'
p537
aS'0000'
p538
aS'+-+-'
p539
aS'+---'
p540
aS'--+-'
p541
aS'-000'
p542
aS'00-0'
p543
aS'-000'
p544
aS'0000'
p545
aS'+-+-'
p546
aS'-0-0'
p547
aS'0000'
p548
aS'+-+-'
p549
aS'+---'
p550
aS'+-0-'
p551
aS'+-+-'
p552
aS'-0+0'
p553
aS'-0-0'
p554
aS'0000'
p555
aS'+-+-'
p556
aS'--00'
p557
aS'-000'
p558
aS'+-+-'
p559
aS'--+-'
p560
aS'-000'
p561
aS'-0+0'
p562
aS'-000'
p563
aS'+-+-'
p564
aS'0-+-'
p565
aS'0-0-'
p566
aS'0-+-'
p567
aS'-000'
p568
aS'-0-0'
p569
aS'+-+-'
p570
aS'0-0-'
p571
aS'0---'
p572
aS'+-+-'
p573
aS'0-0-'
p574
aS'-0-0'
p575
aS'-000'
p576
aS'+0-0'
p577
aS'-000'
p578
aS'+-+-'
p579
aS'--0-'
p580
aS'+---'
p581
aS'-000'
p582
aS'-0-0'
p583
aS'-000'
p584
aS'+-+-'
p585
aS'0-00'
p586
aS'-000'
p587
aS'+-+-'
p588
aS'0-0-'
p589
aS'-000'
p590
aS'+0-0'
p591
aS'-0-0'
p592
aS'+-+-'
p593
aS'0-0-'
p594
aS'0000'
p595
asS'ot_rotl_29'
p596
(lp597
S'+-00'
p598
aS'--+0'
p599
aS'0000'
p600
aS'-000'
p601
aS'+-+-'
p602
aS'--+-'
p603
aS'0-00'
p604
aS'00-0'
p605
aS'0000'
p606
aS'+-+-'
p607
aS'--+-'
p608
aS'+--0'
p609
aS'0000'
p610
aS'+-+-'
p611
aS'+---'
p612
aS'+-0-'
p613
aS'--+-'
p614
aS'+-+-'
p615
aS'+0-0'
p616
aS'-000'
p617
aS'+-+-'
p618
aS'+-0-'
p619
aS'0-00'
p620
aS'-0+0'
p621
aS'+-+-'
p622
aS'+---'
p623
aS'+-+-'
p624
aS'+-0-'
p625
aS'00-0'
p626
aS'0000'
p627
aS'+-+-'
p628
aS'0---'
p629
aS'-0-0'
p630
aS'+-+-'
p631
aS'+-0-'
p632
aS'0000'
p633
aS'-0+0'
p634
aS'+-+-'
p635
aS'+-0-'
p636
aS'+-+-'
p637
aS'0-+-'
p638
aS'0000'
p639
aS'+-+-'
p640
aS'0000'
p641
aS'-000'
p642
aS'+-+-'
p643
aS'---0'
p644
aS'-000'
p645
aS'+-+-'
p646
aS'+---'
p647
aS'+-+-'
p648
aS'00-0'
p649
aS'-000'
p650
aS'+-+-'
p651
aS'0-+-'
p652
aS'00-0'
p653
aS'-000'
p654
aS'+-+-'
p655
aS'00-0'
p656
aS'0000'
p657
aS'-000'
p658
aS'+-+-'
p659
aS'0-+-'
p660
aS'+-+-'
p661
aS'0000'
p662
aS'-0+0'
p663
aS'+-+-'
p664
aS'00+0'
p665
aS'+-+-'
p666
aS'-000'
p667
aS'+-+-'
p668
aS'0000'
p669
aS'+-+-'
p670
aS'0-+-'
p671
aS'+-+-'
p672
aS'-0-0'
p673
aS'+-+-'
p674
asS'ot_rotr_13'
p675
(lp676
S'0000'
p677
aS'+--+'
p678
aS'0--+'
p679
aS'+--+'
p680
aS'-0-0'
p681
aS'+--+'
p682
aS'0--+'
p683
aS'+--+'
p684
aS'00-0'
p685
aS'+--+'
p686
aS'00-+'
p687
aS'+--+'
p688
aS'+-0+'
p689
aS'0--+'
p690
aS'-0+0'
p691
aS'+--+'
p692
aS'00-+'
p693
aS'+--+'
p694
aS'0-++'
p695
aS'0--+'
p696
aS'+--+'
p697
aS'-0+0'
p698
aS'+--+'
p699
aS'0--+'
p700
aS'-0++'
p701
aS'+--+'
p702
aS'00-+'
p703
aS'---+'
p704
aS'000+'
p705
aS'0000'
p706
aS'+--+'
p707
aS'---+'
p708
aS'0000'
p709
aS'-000'
p710
aS'+--+'
p711
aS'0--+'
p712
aS'-000'
p713
aS'+--+'
p714
aS'0--+'
p715
aS'-000'
p716
aS'0000'
p717
aS'+--+'
p718
aS'0--+'
p719
aS'+--+'
p720
aS'0--+'
p721
aS'00+0'
p722
aS'+--+'
p723
aS'0--+'
p724
aS'0000'
p725
aS'0--+'
p726
aS'+--+'
p727
aS'--++'
p728
aS'-0+0'
p729
aS'+--+'
p730
aS'0--+'
p731
aS'---+'
p732
aS'-0+0'
p733
aS'---+'
p734
aS'000+'
p735
aS'-0++'
p736
aS'-0+0'
p737
aS'+--+'
p738
asS'ot_rotr_12'
p739
(lp740
S'0000'
p741
aS'+--+'
p742
aS'00-+'
p743
aS'+--+'
p744
aS'+0+0'
p745
aS'0000'
p746
aS'+--+'
p747
aS'00+0'
p748
aS'+--+'
p749
aS'-000'
p750
aS'0000'
p751
aS'+--+'
p752
aS'-0-0'
p753
aS'0000'
p754
aS'+--+'
p755
aS'---+'
p756
aS'+--+'
p757
aS'---+'
p758
aS'0000'
p759
aS'+--+'
p760
aS'-00+'
p761
aS'0--+'
p762
aS'0000'
p763
aS'+--+'
p764
aS'--0+'
p765
aS'+--+'
p766
aS'0000'
p767
aS'+--+'
p768
aS'00++'
p769
aS'-0+0'
p770
aS'00+0'
p771
aS'0000'
p772
aS'+--+'
p773
aS'0-0+'
p774
aS'00-+'
p775
aS'0--+'
p776
aS'0000'
p777
aS'-0+0'
p778
aS'+--+'
p779
aS'000+'
p780
aS'0--+'
p781
aS'-0+0'
p782
aS'0000'
p783
aS'+--+'
p784
aS'0--+'
p785
aS'-0+0'
p786
aS'00+0'
p787
aS'+--+'
p788
aS'0--+'
p789
aS'--++'
p790
asS'ot_rotr_11'
p791
(lp792
S'+--+'
p793
aS'0000'
p794
aS'-0+0'
p795
aS'0000'
p796
aS'+--+'
p797
aS'-000'
p798
aS'+--+'
p799
aS'---+'
p800
aS'00-+'
p801
aS'0000'
p802
aS'+--+'
p803
aS'00-+'
p804
aS'-0+0'
p805
aS'0000'
p806
aS'+--+'
p807
aS'0--+'
p808
aS'0000'
p809
aS'+--+'
p810
asS'ot_rotr_10'
p811
(lp812
S'0--+'
p813
aS'+--+'
p814
aS'---+'
p815
aS'00-+'
p816
aS'+--+'
p817
aS'0--+'
p818
aS'0000'
p819
aS'-000'
p820
aS'+--+'
p821
aS'0000'
p822
aS'+--+'
p823
aS'0--+'
p824
aS'0000'
p825
aS'+--+'
p826
aS'0--+'
p827
aS'0000'
p828
aS'-0+0'
p829
aS'+--+'
p830
aS'0--+'
p831
aS'--0+'
p832
aS'+--+'
p833
aS'-000'
p834
aS'-0+0'
p835
aS'+--+'
p836
aS'00-+'
p837
aS'+--+'
p838
aS'-0++'
p839
asS'ot_rotr_17'
p840
(lp841
S'+-00'
p842
aS'-0+0'
p843
aS'0000'
p844
aS'+--+'
p845
aS'-0+0'
p846
aS'00+0'
p847
aS'+--+'
p848
aS'+-0+'
p849
aS'0000'
p850
aS'+--+'
p851
aS'0--+'
p852
aS'+-00'
p853
aS'+--+'
p854
aS'0000'
p855
aS'-000'
p856
aS'+--+'
p857
aS'---+'
p858
aS'0000'
p859
aS'+--+'
p860
aS'0--+'
p861
aS'+--+'
p862
aS'-0+0'
p863
aS'+--+'
p864
aS'-0+0'
p865
aS'+--+'
p866
aS'--++'
p867
aS'0000'
p868
aS'-000'
p869
aS'+--+'
p870
aS'--+0'
p871
aS'-000'
p872
aS'-0+0'
p873
aS'+--+'
p874
aS'-0+0'
p875
aS'+--+'
p876
aS'0-0+'
p877
aS'+--+'
p878
aS'+-0+'
p879
aS'-0+0'
p880
aS'+--+'
p881
aS'0-0+'
p882
aS'+--+'
p883
aS'0--+'
p884
aS'+--+'
p885
aS'0000'
p886
aS'-000'
p887
aS'+--+'
p888
aS'+-0+'
p889
aS'0000'
p890
aS'-0-0'
p891
aS'-000'
p892
aS'+--+'
p893
aS'+-0+'
p894
aS'---+'
p895
aS'-000'
p896
aS'00+0'
p897
aS'+--+'
p898
asS'ot_rotr_16'
p899
(lp900
S'+-00'
p901
aS'+--+'
p902
aS'0-00'
p903
aS'0000'
p904
aS'-000'
p905
aS'+-++'
p906
aS'+-0+'
p907
aS'+--+'
p908
aS'0-00'
p909
aS'0000'
p910
aS'0-0+'
p911
aS'0--+'
p912
aS'+--+'
p913
aS'-0+0'
p914
aS'+000'
p915
aS'0000'
p916
aS'+--+'
p917
aS'+-0+'
p918
aS'0000'
p919
aS'+-0+'
p920
aS'+--+'
p921
aS'0-00'
p922
aS'0000'
p923
aS'+--+'
p924
aS'+000'
p925
aS'+--+'
p926
aS'00+0'
p927
aS'+--+'
p928
aS'0000'
p929
aS'+--+'
p930
aS'---+'
p931
aS'0-0+'
p932
aS'0000'
p933
aS'+--+'
p934
aS'-0+0'
p935
aS'+--+'
p936
aS'0-0+'
p937
aS'+--+'
p938
aS'0-++'
p939
aS'-0+0'
p940
aS'-000'
p941
aS'+--+'
p942
aS'0-++'
p943
aS'0000'
p944
aS'+--+'
p945
aS'--++'
p946
aS'-0+0'
p947
aS'+--+'
p948
aS'+-0+'
p949
aS'--0+'
p950
aS'-0+0'
p951
aS'+--+'
p952
aS'0--+'
p953
aS'0-0+'
p954
aS'-0+0'
p955
aS'+--+'
p956
aS'-0-0'
p957
aS'+--+'
p958
asS'ot_rotr_15'
p959
(lp960
S'00-+'
p961
aS'0000'
p962
aS'+--+'
p963
aS'0000'
p964
aS'+--+'
p965
aS'00-+'
p966
aS'0000'
p967
aS'+--+'
p968
aS'0--+'
p969
aS'+--+'
p970
aS'0000'
p971
aS'+--+'
p972
aS'00-0'
p973
aS'+--+'
p974
aS'0000'
p975
aS'-0+0'
p976
aS'+--+'
p977
aS'-0+0'
p978
aS'00-+'
p979
aS'+--+'
p980
aS'-0++'
p981
aS'0--+'
p982
aS'+--+'
p983
aS'-0+0'
p984
aS'0000'
p985
aS'-000'
p986
aS'+--+'
p987
aS'--0+'
p988
aS'0--+'
p989
aS'00-+'
p990
asS'ot_rotr_14'
p991
(lp992
S'0--+'
p993
aS'00-+'
p994
aS'0000'
p995
aS'+--+'
p996
aS'+0-+'
p997
aS'+--+'
p998
aS'00+0'
p999
aS'0000'
p1000
aS'00+0'
p1001
aS'+--+'
p1002
aS'00-+'
p1003
aS'-0+0'
p1004
aS'0000'
p1005
aS'+--+'
p1006
aS'--0+'
p1007
aS'+--+'
p1008
aS'0000'
p1009
aS'-0+0'
p1010
aS'+--+'
p1011
aS'0--+'
p1012
aS'-0+0'
p1013
aS'0000'
p1014
aS'+--+'
p1015
aS'0--+'
p1016
aS'-0++'
p1017
asS'ot_rotr_19'
p1018
(lp1019
S'0-00'
p1020
aS'0000'
p1021
aS'+--+'
p1022
aS'+-0+'
p1023
aS'+-00'
p1024
aS'0000'
p1025
aS'+-++'
p1026
aS'+--+'
p1027
aS'+-0+'
p1028
aS'0000'
p1029
aS'+--+'
p1030
aS'-0-0'
p1031
aS'0000'
p1032
aS'+--+'
p1033
aS'0-00'
p1034
aS'+--+'
p1035
aS'0-0+'
p1036
aS'+--+'
p1037
aS'0--0'
p1038
aS'+--+'
p1039
aS'0--+'
p1040
aS'+-0+'
p1041
aS'-0+0'
p1042
aS'+--+'
p1043
aS'+-0+'
p1044
aS'0-++'
p1045
aS'0000'
p1046
aS'+--+'
p1047
aS'+-0+'
p1048
aS'0000'
p1049
aS'+--+'
p1050
aS'0000'
p1051
aS'00+0'
p1052
aS'+--+'
p1053
aS'+-0+'
p1054
aS'-0+0'
p1055
aS'0000'
p1056
aS'+--+'
p1057
aS'-0-0'
p1058
aS'-000'
p1059
aS'+--+'
p1060
aS'0--+'
p1061
aS'0-0+'
p1062
aS'-0+0'
p1063
aS'+--+'
p1064
aS'-0-0'
p1065
aS'+--+'
p1066
aS'0-++'
p1067
aS'---+'
p1068
aS'-000'
p1069
asS'ot_rotr_18'
p1070
(lp1071
S'0-0+'
p1072
aS'+--+'
p1073
aS'0-0+'
p1074
aS'-000'
p1075
aS'+--+'
p1076
aS'0-0+'
p1077
aS'+--+'
p1078
aS'+-++'
p1079
aS'+0+0'
p1080
aS'-0+0'
p1081
aS'+--+'
p1082
aS'+-++'
p1083
aS'0-0+'
p1084
aS'-0+0'
p1085
aS'+--+'
p1086
asS'u_h_pb_r_robot_stationary_6'
p1087
(lp1088
S'-0-0'
p1089
aS'+0-0'
p1090
aS'-0-0'
p1091
asS'u_h_pb_r_robot_stationary_7'
p1092
(lp1093
S'-0-0'
p1094
aS'-000'
p1095
aS'-0-0'
p1096
aS'-000'
p1097
aS'-0-0'
p1098
asS'u_h_pb_l_robot_stationary_6'
p1099
(lp1100
S'-0+0'
p1101
aS'-000'
p1102
aS'-0+0'
p1103
aS'-0-0'
p1104
aS'-0+0'
p1105
asS'u_h_pb_l_robot_stationary_7'
p1106
(lp1107
S'-0+0'
p1108
asS'ot_rotl_33'
p1109
(lp1110
S'+-+-'
p1111
aS'0000'
p1112
aS'+-+-'
p1113
aS'+-0-'
p1114
aS'+-+-'
p1115
aS'+---'
p1116
aS'+-0-'
p1117
aS'-0-0'
p1118
aS'-000'
p1119
aS'+-+-'
p1120
aS'0--0'
p1121
aS'0000'
p1122
aS'+-+-'
p1123
aS'+-0-'
p1124
aS'-0-0'
p1125
aS'+-+-'
p1126
aS'0-0-'
p1127
aS'-0-0'
p1128
aS'+-+-'
p1129
aS'-000'
p1130
aS'-0-0'
p1131
aS'+-+-'
p1132
aS'0-+-'
p1133
aS'--+-'
p1134
aS'-0-0'
p1135
aS'+-+-'
p1136
aS'--+-'
p1137
aS'+-+-'
p1138
aS'-0+0'
p1139
asS'ot_rotl_32'
p1140
(lp1141
S'+-0-'
p1142
aS'0000'
p1143
aS'+-+-'
p1144
aS'+-00'
p1145
aS'+-+-'
p1146
aS'+-00'
p1147
aS'-0+0'
p1148
aS'0000'
p1149
aS'+-+-'
p1150
aS'--+-'
p1151
aS'0000'
p1152
aS'+-0-'
p1153
aS'0000'
p1154
aS'-000'
p1155
aS'+-+-'
p1156
aS'+---'
p1157
aS'--0-'
p1158
aS'+-0-'
p1159
aS'--0-'
p1160
aS'+-+-'
p1161
aS'+--0'
p1162
aS'0000'
p1163
aS'+-+-'
p1164
aS'0000'
p1165
aS'+0-0'
p1166
aS'+-+-'
p1167
aS'+---'
p1168
aS'+-+-'
p1169
aS'+-0-'
p1170
aS'0000'
p1171
aS'+-+-'
p1172
aS'0-00'
p1173
aS'0000'
p1174
aS'+-+-'
p1175
aS'--+-'
p1176
aS'+-+-'
p1177
aS'-000'
p1178
aS'+-+-'
p1179
aS'0-+-'
p1180
aS'+-+-'
p1181
aS'0-+-'
p1182
aS'-0-0'
p1183
aS'+-+-'
p1184
aS'0000'
p1185
aS'+-+-'
p1186
aS'--0-'
p1187
aS'+---'
p1188
aS'+-+-'
p1189
aS'0-0-'
p1190
aS'-0-0'
p1191
aS'+-+-'
p1192
aS'--+-'
p1193
aS'+-+-'
p1194
aS'+---'
p1195
aS'-000'
p1196
aS'+-+-'
p1197
aS'0-0-'
p1198
aS'-000'
p1199
aS'00-0'
p1200
aS'+-+-'
p1201
aS'0000'
p1202
aS'-000'
p1203
aS'+-+-'
p1204
aS'-0-0'
p1205
aS'-0+0'
p1206
aS'+-+-'
p1207
aS'--+-'
p1208
asS'ot_rotl_31'
p1209
(lp1210
S'+-00'
p1211
aS'+-+-'
p1212
aS'+-00'
p1213
aS'--+0'
p1214
aS'+-0-'
p1215
aS'00-0'
p1216
aS'0000'
p1217
aS'0-+-'
p1218
aS'+-0-'
p1219
aS'+---'
p1220
aS'0000'
p1221
aS'-0+0'
p1222
aS'+-+-'
p1223
aS'+-0-'
p1224
aS'----'
p1225
aS'+---'
p1226
aS'+-0-'
p1227
aS'0-+-'
p1228
aS'+---'
p1229
aS'-0+0'
p1230
aS'0000'
p1231
aS'+-+-'
p1232
aS'--+-'
p1233
aS'-000'
p1234
aS'+-+-'
p1235
aS'--0-'
p1236
aS'-000'
p1237
aS'+-+-'
p1238
aS'-000'
p1239
aS'+-+-'
p1240
aS'0-+-'
p1241
aS'0-0-'
p1242
aS'--00'
p1243
aS'+-+-'
p1244
aS'0-+-'
p1245
aS'+---'
p1246
aS'-000'
p1247
aS'+-+-'
p1248
aS'-000'
p1249
aS'-0-0'
p1250
aS'+-+-'
p1251
aS'0-0-'
p1252
aS'0-+-'
p1253
aS'0-0-'
p1254
aS'+-0-'
p1255
aS'+-+-'
p1256
aS'0-0-'
p1257
asS'ot_rotl_30'
p1258
(lp1259
S'0000'
p1260
aS'+-0-'
p1261
aS'+-00'
p1262
aS'+0-0'
p1263
aS'-0+0'
p1264
aS'0000'
p1265
aS'+-0-'
p1266
aS'+---'
p1267
aS'--+-'
p1268
aS'+-0-'
p1269
aS'0000'
p1270
aS'-0-0'
p1271
aS'+-+-'
p1272
aS'+-0-'
p1273
aS'+---'
p1274
aS'0000'
p1275
aS'+-+-'
p1276
aS'+---'
p1277
aS'+-0-'
p1278
aS'-0-0'
p1279
aS'-0+0'
p1280
aS'+-+-'
p1281
aS'0--0'
p1282
aS'0-+-'
p1283
aS'+-0-'
p1284
aS'-0+0'
p1285
aS'0000'
p1286
aS'+-+-'
p1287
aS'--+-'
p1288
aS'0--0'
p1289
aS'0000'
p1290
aS'+-+-'
p1291
aS'0-+-'
p1292
aS'+000'
p1293
aS'0000'
p1294
aS'+-+-'
p1295
aS'0000'
p1296
aS'+-+-'
p1297
aS'+-0-'
p1298
aS'-000'
p1299
aS'00-0'
p1300
aS'+-+-'
p1301
aS'00-0'
p1302
aS'-0-0'
p1303
aS'+-+-'
p1304
aS'0-+-'
p1305
aS'----'
p1306
aS'0-+-'
p1307
aS'+-+-'
p1308
aS'-0+0'
p1309
aS'+-+-'
p1310
aS'----'
p1311
aS'+-+-'
p1312
aS'-0+0'
p1313
aS'-0-0'
p1314
aS'-000'
p1315
aS'+-+-'
p1316
aS'0-+-'
p1317
aS'--+-'
p1318
aS'+-+-'
p1319
aS'0-+-'
p1320
aS'-000'
p1321
aS'+-+-'
p1322
aS'--00'
p1323
aS'0-+-'
p1324
aS'-000'
p1325
aS'+-+-'
p1326
aS'0-00'
p1327
aS'-0-0'
p1328
aS'+-+-'
p1329
asS'ot_rotl_35'
p1330
(lp1331
S'+-00'
p1332
aS'0000'
p1333
aS'+-+-'
p1334
aS'0000'
p1335
aS'-0+0'
p1336
aS'+0-0'
p1337
aS'0000'
p1338
aS'+-+-'
p1339
aS'--+-'
p1340
aS'+-0-'
p1341
aS'00-0'
p1342
aS'0000'
p1343
aS'+---'
p1344
aS'+-+-'
p1345
aS'+---'
p1346
aS'+-0-'
p1347
aS'+-+-'
p1348
aS'+-0-'
p1349
aS'+-+-'
p1350
aS'00-0'
p1351
aS'+-+-'
p1352
aS'+-0-'
p1353
aS'-0+0'
p1354
aS'0000'
p1355
aS'+-+-'
p1356
aS'--+0'
p1357
aS'0000'
p1358
aS'+-+-'
p1359
aS'0-+-'
p1360
aS'+-+-'
p1361
aS'+-0-'
p1362
aS'0-0-'
p1363
aS'0000'
p1364
aS'+000'
p1365
aS'-000'
p1366
aS'-0-0'
p1367
aS'+-+-'
p1368
aS'0-0-'
p1369
aS'+-+-'
p1370
aS'--+-'
p1371
aS'+-+-'
p1372
aS'-000'
p1373
aS'-0-0'
p1374
aS'+-+-'
p1375
aS'0-+-'
p1376
aS'--+0'
p1377
aS'-000'
p1378
aS'+-+-'
p1379
aS'--+-'
p1380
aS'+-+-'
p1381
aS'0-+-'
p1382
aS'-000'
p1383
aS'+-+-'
p1384
aS'-000'
p1385
aS'+-+-'
p1386
asS'ot_rotl_34'
p1387
(lp1388
S'+-00'
p1389
aS'+-+-'
p1390
aS'0000'
p1391
aS'-000'
p1392
aS'0000'
p1393
aS'+-+-'
p1394
aS'+0-0'
p1395
aS'-000'
p1396
aS'+-+-'
p1397
aS'0000'
p1398
aS'+---'
p1399
aS'0-0-'
p1400
aS'0000'
p1401
aS'+-+-'
p1402
aS'+-0-'
p1403
aS'+0-0'
p1404
aS'+-+-'
p1405
aS'+-0-'
p1406
aS'+--0'
p1407
aS'0000'
p1408
aS'+-+-'
p1409
aS'0-+-'
p1410
aS'+-0-'
p1411
aS'-000'
p1412
aS'0000'
p1413
aS'+-+-'
p1414
aS'--+-'
p1415
aS'0000'
p1416
aS'+-+-'
p1417
aS'--+-'
p1418
aS'-000'
p1419
aS'+-+-'
p1420
aS'-0+0'
p1421
aS'-000'
p1422
aS'+-+-'
p1423
aS'-000'
p1424
aS'-0-0'
p1425
aS'+-+-'
p1426
aS'-000'
p1427
aS'+-+-'
p1428
aS'+0-0'
p1429
aS'-000'
p1430
aS'+-+-'
p1431
aS'0-+-'
p1432
aS'+---'
p1433
aS'+-+-'
p1434
aS'--+-'
p1435
aS'-000'
p1436
aS'+0-0'
p1437
aS'+-+-'
p1438
aS'0-00'
p1439
aS'-000'
p1440
aS'+-+-'
p1441
aS'-000'
p1442
aS'+-+-'
p1443
asS'u_r_meets_stationary_h_12'
p1444
(lp1445
S'0000'
p1446
aS'-0-0'
p1447
aS'0000'
p1448
aS'+-+-'
p1449
aS'+-00'
p1450
aS'---0'
p1451
aS'0000'
p1452
aS'+-00'
p1453
aS'-0-0'
p1454
aS'+-+-'
p1455
aS'0-00'
p1456
aS'+-00'
p1457
aS'0000'
p1458
aS'-000'
p1459
aS'+-+-'
p1460
aS'--0-'
p1461
aS'+-00'
p1462
aS'0000'
p1463
aS'0-00'
p1464
aS'+-0-'
p1465
aS'+-00'
p1466
aS'-000'
p1467
aS'+-+-'
p1468
aS'+-0-'
p1469
aS'--00'
p1470
aS'-000'
p1471
aS'+-+-'
p1472
aS'+-0-'
p1473
aS'--00'
p1474
aS'+-0-'
p1475
aS'--0-'
p1476
aS'+-0-'
p1477
aS'-000'
p1478
aS'+-+-'
p1479
aS'--0-'
p1480
aS'-000'
p1481
aS'+-+-'
p1482
aS'0-00'
p1483
aS'+-0-'
p1484
aS'-000'
p1485
aS'0---'
p1486
aS'+-0-'
p1487
aS'0-0-'
p1488
aS'--0-'
p1489
aS'0-00'
p1490
aS'-000'
p1491
aS'+-+-'
p1492
aS'--0-'
p1493
aS'0-0-'
p1494
aS'-000'
p1495
aS'+-+-'
p1496
aS'--0-'
p1497
aS'0-0-'
p1498
aS'--00'
p1499
aS'+-0-'
p1500
aS'-000'
p1501
aS'+-+-'
p1502
aS'--00'
p1503
aS'--0-'
p1504
aS'+-+-'
p1505
aS'--0-'
p1506
aS'+-0-'
p1507
aS'0-0-'
p1508
aS'----'
p1509
aS'+-+-'
p1510
aS'0-0-'
p1511
aS'+-0-'
p1512
aS'-000'
p1513
aS'0-+-'
p1514
aS'0-0-'
p1515
aS'--00'
p1516
aS'-0-0'
p1517
aS'+-+-'
p1518
aS'0-0-'
p1519
aS'--00'
p1520
aS'-0-0'
p1521
aS'+-+-'
p1522
aS'--0-'
p1523
aS'--+-'
p1524
aS'0-0-'
p1525
aS'--0-'
p1526
aS'-0+0'
p1527
aS'-000'
p1528
aS'+-+-'
p1529
aS'0-0-'
p1530
aS'--00'
p1531
aS'-0-0'
p1532
aS'+-+-'
p1533
aS'0-0-'
p1534
aS'--0-'
p1535
aS'0---'
p1536
aS'-000'
p1537
aS'+-+-'
p1538
aS'--0-'
p1539
aS'-000'
p1540
aS'-0-0'
p1541
aS'+-+-'
p1542
aS'0-0-'
p1543
aS'0-00'
p1544
aS'+-0-'
p1545
aS'0-0-'
p1546
aS'--00'
p1547
aS'+-0-'
p1548
aS'0-0-'
p1549
aS'--0-'
p1550
aS'-000'
p1551
aS'+-+-'
p1552
aS'0-0-'
p1553
aS'-0-0'
p1554
aS'+-+-'
p1555
aS'--0-'
p1556
aS'-000'
p1557
aS'+-+-'
p1558
aS'0-0-'
p1559
aS'-000'
p1560
aS'+-+-'
p1561
aS'--0-'
p1562
aS'0-0-'
p1563
aS'--00'
p1564
aS'0-0-'
p1565
aS'--00'
p1566
aS'-000'
p1567
aS'+-+-'
p1568
aS'-000'
p1569
aS'--00'
p1570
aS'-000'
p1571
aS'+-+-'
p1572
aS'0-0-'
p1573
aS'--0-'
p1574
aS'0-0-'
p1575
aS'--00'
p1576
aS'-0-0'
p1577
aS'+-+-'
p1578
aS'--00'
p1579
aS'-0-0'
p1580
aS'+-+-'
p1581
aS'--0-'
p1582
aS'-000'
p1583
aS'-0-0'
p1584
aS'+-+-'
p1585
aS'--0-'
p1586
aS'0-0-'
p1587
aS'--0-'
p1588
aS'-0-0'
p1589
aS'+-+-'
p1590
aS'0-0-'
p1591
aS'--00'
p1592
aS'-0-0'
p1593
aS'-000'
p1594
aS'+-+-'
p1595
aS'---0'
p1596
aS'-0-0'
p1597
aS'+-+-'
p1598
aS'0-0-'
p1599
aS'+-+-'
p1600
aS'-0-0'
p1601
aS'+-+-'
p1602
aS'0-0-'
p1603
asS'pb_r_18'
p1604
(lp1605
S'--00'
p1606
aS'--+0'
p1607
aS'-0+0'
p1608
aS'0-00'
p1609
aS'--+0'
p1610
aS'-0+0'
p1611
aS'0-00'
p1612
aS'--+0'
p1613
aS'-0+0'
p1614
aS'--++'
p1615
aS'--+0'
p1616
aS'--++'
p1617
aS'--+0'
p1618
aS'-0+0'
p1619
aS'0-++'
p1620
aS'--+0'
p1621
aS'--++'
p1622
aS'--+0'
p1623
aS'--++'
p1624
aS'--+0'
p1625
aS'-0+0'
p1626
aS'--++'
p1627
aS'--+0'
p1628
aS'-0+0'
p1629
aS'0-++'
p1630
aS'--+0'
p1631
aS'---+'
p1632
aS'--+0'
p1633
aS'-0+0'
p1634
aS'---+'
p1635
aS'--++'
p1636
aS'---+'
p1637
aS'-0+0'
p1638
aS'0-++'
p1639
aS'--++'
p1640
aS'--0+'
p1641
aS'--++'
p1642
aS'-0+0'
p1643
aS'0-++'
p1644
aS'--++'
p1645
aS'-0+0'
p1646
aS'0-++'
p1647
asS'pb_l_13'
p1648
(lp1649
S'--00'
p1650
aS'-0+0'
p1651
aS'--++'
p1652
aS'--00'
p1653
aS'--++'
p1654
aS'--+0'
p1655
aS'--++'
p1656
aS'--+0'
p1657
aS'--++'
p1658
aS'--+0'
p1659
aS'--++'
p1660
aS'-0+0'
p1661
aS'--++'
p1662
aS'--+0'
p1663
aS'--++'
p1664
aS'--+0'
p1665
aS'--++'
p1666
aS'-0+0'
p1667
aS'--++'
p1668
aS'-0+0'
p1669
aS'--++'
p1670
aS'-0+0'
p1671
aS'0-++'
p1672
aS'--++'
p1673
aS'-0+0'
p1674
aS'0-++'
p1675
aS'--0+'
p1676
aS'--++'
p1677
asS'u_h_meets_stationary_r_12'
p1678
(lp1679
S'-0-0'
p1680
aS'00-0'
p1681
aS'-0-0'
p1682
aS'-000'
p1683
aS'-0-0'
p1684
aS'-000'
p1685
aS'-0-0'
p1686
aS'-0+0'
p1687
aS'-0-0'
p1688
aS'-0+0'
p1689
aS'-0-0'
p1690
aS'-0+0'
p1691
aS'-0-0'
p1692
aS'00+0'
p1693
aS'-0-0'
p1694
aS'00+0'
p1695
aS'-0-0'
p1696
aS'00+0'
p1697
aS'-0-0'
p1698
aS'00-0'
p1699
aS'-0-0'
p1700
asS'u_h_meets_stationary_r_13'
p1701
(lp1702
S'-0-0'
p1703
aS'-000'
p1704
aS'-0-0'
p1705
aS'-000'
p1706
aS'-0-0'
p1707
aS'-0+0'
p1708
aS'-0-0'
p1709
aS'-000'
p1710
aS'-0-0'
p1711
aS'-0+0'
p1712
aS'-0-0'
p1713
asS'u_h_meets_stationary_r_10'
p1714
(lp1715
S'-0-0'
p1716
aS'-0+0'
p1717
aS'-0-0'
p1718
aS'-000'
p1719
aS'-0-0'
p1720
aS'-0+0'
p1721
aS'-0-0'
p1722
aS'-000'
p1723
aS'-0-0'
p1724
aS'00+0'
p1725
aS'-0-0'
p1726
asS'u_h_meets_stationary_r_11'
p1727
(lp1728
S'-0-0'
p1729
aS'-0+0'
p1730
aS'-0-0'
p1731
aS'-0+0'
p1732
aS'-0-0'
p1733
aS'-000'
p1734
aS'-0-0'
p1735
aS'+0+0'
p1736
aS'-0-0'
p1737
aS'-0+0'
p1738
aS'-0-0'
p1739
asS'u_h_meets_stationary_r_14'
p1740
(lp1741
S'-0-0'
p1742
aS'-000'
p1743
aS'-0-0'
p1744
asS'u_h_meets_stationary_r_15'
p1745
(lp1746
S'-000'
p1747
aS'-0-0'
p1748
aS'-000'
p1749
aS'-0-0'
p1750
aS'-0+0'
p1751
aS'-0-0'
p1752
aS'-000'
p1753
aS'-0-0'
p1754
aS'-000'
p1755
aS'-0-0'
p1756
aS'+0+0'
p1757
aS'-0-0'
p1758
aS'-000'
p1759
aS'-0-0'
p1760
aS'-0+0'
p1761
aS'-0-0'
p1762
aS'00-0'
p1763
aS'-0-0'
p1764
aS'-0+0'
p1765
aS'-0-0'
p1766
aS'-0+0'
p1767
aS'-0-0'
p1768
aS'-0+0'
p1769
aS'-0-0'
p1770
asS'ot_rotl_1'
p1771
(lp1772
S'-0+0'
p1773
aS'-0-0'
p1774
aS'-0+0'
p1775
aS'-0-0'
p1776
aS'-0+0'
p1777
aS'-0-0'
p1778
aS'-0+0'
p1779
aS'-0-0'
p1780
aS'-0+0'
p1781
aS'-0-0'
p1782
aS'-0+0'
p1783
aS'-0-0'
p1784
aS'-0+0'
p1785
asS'u_r_meets_stationary_h_13'
p1786
(lp1787
S'+-00'
p1788
aS'0-00'
p1789
aS'0000'
p1790
aS'+-+-'
p1791
aS'+-00'
p1792
aS'---0'
p1793
aS'0000'
p1794
aS'+-+-'
p1795
aS'+-00'
p1796
aS'---0'
p1797
aS'0-00'
p1798
aS'-000'
p1799
aS'+-+-'
p1800
aS'----'
p1801
aS'+-00'
p1802
aS'+-0-'
p1803
aS'-0-0'
p1804
aS'+-0-'
p1805
aS'+-00'
p1806
aS'0-00'
p1807
aS'+---'
p1808
aS'+-0-'
p1809
aS'-000'
p1810
aS'0-00'
p1811
aS'+-0-'
p1812
aS'---0'
p1813
aS'+-0-'
p1814
aS'--00'
p1815
aS'-000'
p1816
aS'+-0-'
p1817
aS'--0-'
p1818
aS'-000'
p1819
aS'0-+-'
p1820
aS'0-0-'
p1821
aS'--0-'
p1822
aS'-000'
p1823
aS'+-0-'
p1824
aS'--+-'
p1825
aS'0-0-'
p1826
aS'--00'
p1827
aS'--+-'
p1828
aS'--0-'
p1829
aS'+-+-'
p1830
aS'0-+-'
p1831
aS'+-0-'
p1832
aS'-000'
p1833
aS'0-0-'
p1834
aS'-000'
p1835
aS'-0+0'
p1836
aS'+-0-'
p1837
aS'--00'
p1838
aS'-000'
p1839
aS'+-+-'
p1840
aS'----'
p1841
aS'+-0-'
p1842
aS'-000'
p1843
aS'+-0-'
p1844
aS'0-0-'
p1845
aS'-0-0'
p1846
aS'+-+-'
p1847
aS'+---'
p1848
aS'0-0-'
p1849
aS'0---'
p1850
aS'0-0-'
p1851
aS'-000'
p1852
aS'-0-0'
p1853
aS'+-+-'
p1854
aS'----'
p1855
aS'0-0-'
p1856
aS'-0+0'
p1857
aS'0-0-'
p1858
aS'--00'
p1859
aS'-000'
p1860
aS'+-+-'
p1861
aS'----'
p1862
aS'--00'
p1863
aS'-0+0'
p1864
aS'+-+-'
p1865
aS'--0-'
p1866
aS'+-0-'
p1867
aS'-000'
p1868
aS'+-0-'
p1869
aS'0-0-'
p1870
aS'+-+0'
p1871
aS'-000'
p1872
aS'+-+-'
p1873
aS'0-0-'
p1874
aS'+-+-'
p1875
aS'-0-0'
p1876
aS'+-+-'
p1877
aS'0-0-'
p1878
aS'-0-0'
p1879
aS'+-+-'
p1880
aS'0-0-'
p1881
aS'--00'
p1882
aS'+-+-'
p1883
aS'--00'
p1884
aS'+-0-'
p1885
aS'--00'
p1886
aS'+-+-'
p1887
aS'0-0-'
p1888
aS'--00'
p1889
aS'0-0-'
p1890
aS'-000'
p1891
aS'+-+-'
p1892
aS'0-00'
p1893
aS'+-+-'
p1894
aS'--0-'
p1895
aS'-000'
p1896
aS'+-+-'
p1897
aS'0-0-'
p1898
aS'-000'
p1899
aS'+-+-'
p1900
aS'0-0-'
p1901
aS'-000'
p1902
aS'-0-0'
p1903
aS'+-+-'
p1904
aS'--0-'
p1905
aS'-000'
p1906
aS'+-+-'
p1907
aS'--0-'
p1908
aS'0-0-'
p1909
aS'--00'
p1910
aS'+-0-'
p1911
aS'-0-0'
p1912
aS'+-+-'
p1913
aS'0-+-'
p1914
aS'-000'
p1915
aS'+-+-'
p1916
aS'+-0-'
p1917
aS'----'
p1918
aS'+-+-'
p1919
aS'0-+-'
p1920
aS'--0-'
p1921
aS'-000'
p1922
aS'+-+-'
p1923
aS'--0-'
p1924
aS'0-+-'
p1925
aS'0-0-'
p1926
aS'-0-0'
p1927
aS'+-+-'
p1928
aS'0-0-'
p1929
aS'--00'
p1930
aS'-0-0'
p1931
asS'ot_rotl_5'
p1932
(lp1933
S'-000'
p1934
aS'-0+0'
p1935
aS'-000'
p1936
aS'-0+0'
p1937
aS'-000'
p1938
aS'-0+0'
p1939
asS'ot_rotl_8'
p1940
(lp1941
S'0000'
p1942
aS'00+-'
p1943
aS'0000'
p1944
aS'+0+0'
p1945
aS'0000'
p1946
aS'+-+-'
p1947
aS'+0+-'
p1948
aS'+-+-'
p1949
aS'0000'
p1950
aS'+0+0'
p1951
aS'+-+-'
p1952
aS'0000'
p1953
aS'+-+-'
p1954
aS'0-+-'
p1955
aS'+-+-'
p1956
aS'00+-'
p1957
aS'00+0'
p1958
aS'0000'
p1959
aS'+-+-'
p1960
aS'+0+0'
p1961
aS'0000'
p1962
aS'+-+-'
p1963
aS'00+0'
p1964
aS'+-+-'
p1965
aS'+0+-'
p1966
aS'00+0'
p1967
aS'+-+-'
p1968
aS'+0+0'
p1969
aS'--+-'
p1970
aS'+-+-'
p1971
aS'00+0'
p1972
aS'0-+-'
p1973
aS'--0-'
p1974
aS'+-+-'
p1975
aS'00+0'
p1976
aS'-000'
p1977
aS'-0-0'
p1978
aS'+-+-'
p1979
aS'0-+-'
p1980
aS'--0-'
p1981
aS'0-+-'
p1982
aS'00+-'
p1983
aS'-0-0'
p1984
aS'0-+-'
p1985
aS'+-+-'
p1986
aS'0-+-'
p1987
aS'+---'
p1988
aS'--+-'
p1989
aS'0-+-'
p1990
aS'-0-0'
p1991
aS'+-+-'
p1992
aS'-0-0'
p1993
aS'0-+-'
p1994
asS'u_r_meets_stationary_h_8'
p1995
(lp1996
S'+-00'
p1997
aS'---0'
p1998
aS'0-00'
p1999
aS'0000'
p2000
aS'0-0-'
p2001
aS'+-00'
p2002
aS'0000'
p2003
aS'-0-0'
p2004
aS'+-+-'
p2005
aS'+-00'
p2006
aS'---0'
p2007
aS'0000'
p2008
aS'+-+-'
p2009
aS'+-00'
p2010
aS'---0'
p2011
aS'+-00'
p2012
aS'0-00'
p2013
aS'---0'
p2014
aS'-000'
p2015
aS'-0-0'
p2016
aS'-000'
p2017
aS'+-+-'
p2018
aS'--0-'
p2019
aS'-000'
p2020
aS'+-+-'
p2021
aS'+-0-'
p2022
aS'0000'
p2023
aS'+-0-'
p2024
aS'+-00'
p2025
aS'--0-'
p2026
aS'+-+-'
p2027
aS'--00'
p2028
aS'+-+-'
p2029
aS'0-0-'
p2030
aS'+-+-'
p2031
aS'-000'
p2032
aS'+-+-'
p2033
aS'-000'
p2034
aS'-0-0'
p2035
aS'-000'
p2036
aS'+-+-'
p2037
aS'0-00'
p2038
aS'---0'
p2039
aS'+-+-'
p2040
aS'+-0-'
p2041
aS'--0-'
p2042
aS'-0-0'
p2043
aS'+-+-'
p2044
aS'0-0-'
p2045
aS'--00'
p2046
aS'-000'
p2047
aS'0-+-'
p2048
aS'0-0-'
p2049
aS'-000'
p2050
aS'+-+-'
p2051
aS'0-0-'
p2052
aS'----'
p2053
aS'-000'
p2054
aS'+-+-'
p2055
aS'0-0-'
p2056
aS'-000'
p2057
aS'-0-0'
p2058
aS'+-+-'
p2059
aS'--00'
p2060
aS'0-0-'
p2061
aS'--00'
p2062
aS'-0-0'
p2063
aS'-000'
p2064
aS'+-+-'
p2065
aS'0-0-'
p2066
aS'----'
p2067
aS'-000'
p2068
aS'+---'
p2069
aS'+0-0'
p2070
aS'+-0-'
p2071
aS'0-0-'
p2072
aS'-0+0'
p2073
aS'+-0-'
p2074
aS'0-0-'
p2075
aS'--00'
p2076
aS'--+-'
p2077
aS'+-+-'
p2078
aS'--+-'
p2079
aS'--00'
p2080
aS'+-0-'
p2081
aS'--+-'
p2082
aS'-000'
p2083
aS'+-+-'
p2084
aS'--+-'
p2085
aS'-000'
p2086
aS'+-+-'
p2087
aS'--+-'
p2088
aS'0-0-'
p2089
aS'-000'
p2090
aS'+-+-'
p2091
aS'--+-'
p2092
aS'0-+-'
p2093
aS'-000'
p2094
aS'+-+-'
p2095
aS'0-+-'
p2096
aS'0-0-'
p2097
aS'--+-'
p2098
aS'+-+-'
p2099
aS'-000'
p2100
aS'+-+-'
p2101
aS'0-0-'
p2102
aS'--+-'
p2103
aS'-000'
p2104
aS'+-+-'
p2105
aS'--0-'
p2106
aS'--00'
p2107
aS'-000'
p2108
aS'+-+-'
p2109
aS'--0-'
p2110
aS'0-+-'
p2111
aS'0-0-'
p2112
aS'-000'
p2113
aS'+-+-'
p2114
aS'----'
p2115
aS'0-+-'
p2116
aS'-000'
p2117
aS'+-+-'
p2118
aS'----'
p2119
aS'---0'
p2120
aS'+-+-'
p2121
aS'0-0-'
p2122
aS'--0-'
p2123
aS'-000'
p2124
aS'-0-0'
p2125
aS'+-+-'
p2126
aS'+-0-'
p2127
aS'0-+-'
p2128
aS'-000'
p2129
aS'0-0-'
p2130
aS'-0-0'
p2131
aS'-000'
p2132
aS'+-+-'
p2133
aS'0-+-'
p2134
aS'---0'
p2135
aS'-0-0'
p2136
aS'+-+-'
p2137
aS'0-+-'
p2138
aS'---0'
p2139
aS'-0-0'
p2140
aS'+-+-'
p2141
asS'u_r_meets_stationary_h_9'
p2142
(lp2143
S'+-00'
p2144
aS'0-00'
p2145
aS'0000'
p2146
aS'+-+-'
p2147
aS'+-00'
p2148
aS'0000'
p2149
aS'-0-0'
p2150
aS'+-+-'
p2151
aS'0-00'
p2152
aS'+-0-'
p2153
aS'0000'
p2154
aS'-0-0'
p2155
aS'+-+-'
p2156
aS'+-0-'
p2157
aS'----'
p2158
aS'0-00'
p2159
aS'-0-0'
p2160
aS'+-+-'
p2161
aS'+-0-'
p2162
aS'--0-'
p2163
aS'0-0-'
p2164
aS'0000'
p2165
aS'-000'
p2166
aS'+-+-'
p2167
aS'0-00'
p2168
aS'--0-'
p2169
aS'0-00'
p2170
aS'+-0-'
p2171
aS'--0-'
p2172
aS'-000'
p2173
aS'+-0-'
p2174
aS'--0-'
p2175
aS'-0-0'
p2176
aS'+-+-'
p2177
aS'--0-'
p2178
aS'+-0-'
p2179
aS'-0-0'
p2180
aS'+-+-'
p2181
aS'0-00'
p2182
aS'+-0-'
p2183
aS'-000'
p2184
aS'+-0-'
p2185
aS'--0-'
p2186
aS'+-0-'
p2187
aS'--0-'
p2188
aS'-000'
p2189
aS'+-0-'
p2190
aS'0-0-'
p2191
aS'--0-'
p2192
aS'+-0-'
p2193
aS'0-+-'
p2194
aS'--00'
p2195
aS'-000'
p2196
aS'+-+-'
p2197
aS'--00'
p2198
aS'0-0-'
p2199
aS'--00'
p2200
aS'-000'
p2201
aS'+-+-'
p2202
aS'0-0-'
p2203
aS'--0-'
p2204
aS'-000'
p2205
aS'+-+-'
p2206
aS'0-0-'
p2207
aS'-000'
p2208
aS'+-+-'
p2209
aS'+-0-'
p2210
aS'+-+-'
p2211
aS'--0-'
p2212
aS'-000'
p2213
aS'00-0'
p2214
aS'+-0-'
p2215
aS'--0-'
p2216
aS'0-0-'
p2217
aS'-000'
p2218
aS'+-+-'
p2219
aS'--00'
p2220
aS'--+-'
p2221
aS'-000'
p2222
aS'+-+-'
p2223
aS'0-+-'
p2224
aS'--0-'
p2225
aS'0-0-'
p2226
aS'-000'
p2227
aS'+-+-'
p2228
aS'--+-'
p2229
aS'-000'
p2230
aS'+-+-'
p2231
aS'-000'
p2232
aS'0000'
p2233
aS'+-+-'
p2234
aS'--00'
p2235
aS'-0-0'
p2236
aS'+-+-'
p2237
aS'-0-0'
p2238
aS'-000'
p2239
aS'+-+-'
p2240
aS'-000'
p2241
aS'+-+-'
p2242
aS'0-+-'
p2243
aS'-000'
p2244
aS'+-+-'
p2245
aS'0-0-'
p2246
aS'--0-'
p2247
aS'0-0-'
p2248
aS'-0-0'
p2249
aS'-000'
p2250
aS'-0-0'
p2251
aS'+-+-'
p2252
aS'0-0-'
p2253
aS'0-+-'
p2254
aS'-000'
p2255
aS'+-+-'
p2256
aS'0-0-'
p2257
aS'+-+-'
p2258
aS'0-0-'
p2259
aS'0-+-'
p2260
aS'----'
p2261
aS'--0-'
p2262
aS'-0-0'
p2263
aS'+-+-'
p2264
aS'0-0-'
p2265
aS'0-+-'
p2266
aS'---0'
p2267
aS'+-+-'
p2268
aS'0-0-'
p2269
aS'-0-0'
p2270
aS'+-+-'
p2271
aS'0-0-'
p2272
aS'-0-0'
p2273
aS'+-+-'
p2274
aS'0-0-'
p2275
aS'0--0'
p2276
aS'0-0-'
p2277
aS'-0-0'
p2278
aS'+-+-'
p2279
aS'0---'
p2280
aS'0-0-'
p2281
aS'0-+-'
p2282
aS'-0-0'
p2283
aS'+-+-'
p2284
aS'----'
p2285
asS'ot_rotr_9'
p2286
(lp2287
S'00-+'
p2288
aS'0000'
p2289
aS'+--+'
p2290
aS'00-+'
p2291
aS'+--+'
p2292
aS'0000'
p2293
aS'+--+'
p2294
aS'0000'
p2295
aS'+0-0'
p2296
aS'+--+'
p2297
aS'+0-+'
p2298
aS'+--+'
p2299
aS'+0-+'
p2300
aS'+--+'
p2301
aS'00-0'
p2302
aS'0000'
p2303
aS'+--+'
p2304
aS'0--+'
p2305
aS'+--+'
p2306
aS'0000'
p2307
aS'+--+'
p2308
aS'00-0'
p2309
aS'0000'
p2310
aS'-0-0'
p2311
aS'+--+'
p2312
aS'-0+0'
p2313
aS'0000'
p2314
aS'00-0'
p2315
aS'+--+'
p2316
aS'--0+'
p2317
aS'+--+'
p2318
aS'0--+'
p2319
aS'0000'
p2320
aS'-0+0'
p2321
aS'+--+'
p2322
aS'0--+'
p2323
aS'00-+'
p2324
aS'-0+0'
p2325
aS'-000'
p2326
aS'-0+0'
p2327
aS'0000'
p2328
aS'+--+'
p2329
aS'--0+'
p2330
aS'0000'
p2331
aS'+--+'
p2332
aS'0--+'
p2333
aS'-0+0'
p2334
aS'-000'
p2335
aS'+--+'
p2336
asS'ot_rotr_2'
p2337
(lp2338
S'-0-0'
p2339
asS'ot_rotr_7'
p2340
(lp2341
S'+--+'
p2342
aS'0000'
p2343
aS'+--+'
p2344
aS'---+'
p2345
aS'0000'
p2346
aS'+--+'
p2347
aS'00-+'
p2348
aS'-0-+'
p2349
aS'0000'
p2350
aS'+--+'
p2351
aS'0000'
p2352
aS'+--+'
p2353
aS'0000'
p2354
aS'+--+'
p2355
aS'0--+'
p2356
aS'+--+'
p2357
aS'-0+0'
p2358
asS'u_r_meets_stationary_h_6'
p2359
(lp2360
S'0000'
p2361
aS'+-00'
p2362
aS'0000'
p2363
aS'+-00'
p2364
aS'0000'
p2365
aS'----'
p2366
aS'+-00'
p2367
aS'0-00'
p2368
aS'0-0-'
p2369
aS'+-00'
p2370
aS'-0-0'
p2371
aS'+-+-'
p2372
aS'+-00'
p2373
aS'---0'
p2374
aS'+-00'
p2375
aS'-0-0'
p2376
aS'0000'
p2377
aS'+-+-'
p2378
aS'--0-'
p2379
aS'-000'
p2380
aS'0000'
p2381
aS'+-+-'
p2382
aS'---0'
p2383
aS'0-00'
p2384
aS'+---'
p2385
aS'+-0-'
p2386
aS'--00'
p2387
aS'-000'
p2388
aS'+-+-'
p2389
aS'0-0-'
p2390
aS'-000'
p2391
aS'+-+-'
p2392
aS'--0-'
p2393
aS'+-0-'
p2394
aS'0-00'
p2395
aS'-000'
p2396
aS'+-+-'
p2397
aS'--00'
p2398
aS'-000'
p2399
aS'+-+-'
p2400
aS'--0-'
p2401
aS'+-0-'
p2402
aS'--00'
p2403
aS'-000'
p2404
aS'+-+-'
p2405
aS'+-0-'
p2406
aS'--00'
p2407
aS'-000'
p2408
aS'+-+-'
p2409
aS'--0-'
p2410
aS'+-0-'
p2411
aS'0-00'
p2412
aS'-000'
p2413
aS'+-+-'
p2414
aS'0-+-'
p2415
aS'0-0-'
p2416
aS'--0-'
p2417
aS'-000'
p2418
aS'+-+-'
p2419
aS'+-0-'
p2420
aS'--00'
p2421
aS'-000'
p2422
aS'+-+-'
p2423
aS'0-0-'
p2424
aS'--0-'
p2425
aS'-0-0'
p2426
aS'+-+-'
p2427
aS'0-0-'
p2428
aS'-0-0'
p2429
aS'-000'
p2430
aS'+-+-'
p2431
aS'0-+-'
p2432
aS'-000'
p2433
aS'+-0-'
p2434
aS'0-0-'
p2435
aS'--+0'
p2436
aS'+-+-'
p2437
aS'--+-'
p2438
aS'-000'
p2439
aS'+-+-'
p2440
aS'+-0-'
p2441
aS'--0-'
p2442
aS'0-0-'
p2443
aS'----'
p2444
aS'-000'
p2445
aS'+-+-'
p2446
aS'-0-0'
p2447
aS'+-0-'
p2448
aS'--0-'
p2449
aS'--00'
p2450
aS'-0-0'
p2451
aS'+-+-'
p2452
aS'0-0-'
p2453
aS'----'
p2454
aS'+-+-'
p2455
aS'0-0-'
p2456
aS'+-0-'
p2457
aS'0-0-'
p2458
aS'--0-'
p2459
aS'--00'
p2460
aS'-0-0'
p2461
aS'+-+-'
p2462
aS'0-0-'
p2463
aS'-000'
p2464
aS'0-0-'
p2465
aS'-0-0'
p2466
aS'+-+-'
p2467
aS'--00'
p2468
aS'-0-0'
p2469
aS'+-+-'
p2470
aS'--00'
p2471
aS'+-0-'
p2472
aS'--+-'
p2473
aS'-000'
p2474
aS'+-+-'
p2475
aS'0-0-'
p2476
aS'-000'
p2477
aS'--00'
p2478
aS'-000'
p2479
aS'-0-0'
p2480
aS'+-+-'
p2481
aS'--0-'
p2482
aS'-0-0'
p2483
aS'+-+-'
p2484
aS'0-0-'
p2485
aS'-000'
p2486
aS'+-+-'
p2487
aS'--00'
p2488
aS'0-+-'
p2489
aS'-0-0'
p2490
aS'+-+-'
p2491
aS'0-0-'
p2492
aS'0-+-'
p2493
aS'-0-0'
p2494
aS'+-+-'
p2495
aS'0-0-'
p2496
aS'--+-'
p2497
aS'-000'
p2498
aS'-0-0'
p2499
aS'+-+-'
p2500
aS'0-0-'
p2501
aS'----'
p2502
aS'-0-0'
p2503
aS'+-+-'
p2504
aS'0-0-'
p2505
aS'-0-0'
p2506
aS'+-+-'
p2507
aS'0-0-'
p2508
asS'pb_l_23'
p2509
(lp2510
S'---0'
p2511
aS'-0-0'
p2512
aS'----'
p2513
aS'-0-0'
p2514
aS'0---'
p2515
aS'----'
p2516
aS'-0-0'
p2517
aS'0---'
p2518
aS'----'
p2519
aS'-0-0'
p2520
aS'+---'
p2521
aS'----'
p2522
aS'-0+0'
p2523
aS'-0-0'
p2524
aS'----'
p2525
aS'0-0-'
p2526
aS'---0'
p2527
aS'-0-0'
p2528
aS'----'
p2529
aS'-0-0'
p2530
aS'+-+-'
p2531
aS'----'
p2532
aS'-0-0'
p2533
aS'----'
p2534
aS'-0-0'
p2535
aS'----'
p2536
aS'--0-'
p2537
aS'-0-0'
p2538
aS'----'
p2539
aS'-0-0'
p2540
aS'0---'
p2541
aS'----'
p2542
aS'-0-0'
p2543
aS'+-+-'
p2544
aS'----'
p2545
asS'pb_l_22'
p2546
(lp2547
S'---0'
p2548
aS'-0-0'
p2549
aS'----'
p2550
aS'---0'
p2551
aS'-0-0'
p2552
aS'0---'
p2553
aS'----'
p2554
aS'-0-0'
p2555
aS'----'
p2556
aS'--+-'
p2557
aS'----'
p2558
aS'-0-0'
p2559
aS'----'
p2560
aS'-0-0'
p2561
aS'-0+0'
p2562
aS'----'
p2563
aS'-0-0'
p2564
aS'----'
p2565
aS'-0-0'
p2566
aS'----'
p2567
aS'-0-0'
p2568
aS'0---'
p2569
aS'-0-0'
p2570
aS'----'
p2571
asS'pb_l_21'
p2572
(lp2573
S'-0-0'
p2574
aS'----'
p2575
aS'---0'
p2576
aS'-0-0'
p2577
aS'----'
p2578
aS'---0'
p2579
aS'-0-0'
p2580
aS'0---'
p2581
aS'----'
p2582
aS'-0-0'
p2583
aS'----'
p2584
aS'---0'
p2585
aS'-0-0'
p2586
aS'----'
p2587
aS'-0-0'
p2588
aS'0---'
p2589
aS'----'
p2590
aS'-0-0'
p2591
aS'----'
p2592
aS'-0-0'
p2593
aS'----'
p2594
aS'-0-0'
p2595
aS'----'
p2596
aS'-0-0'
p2597
aS'----'
p2598
asS'pb_l_20'
p2599
(lp2600
S'-0-0'
p2601
aS'----'
p2602
aS'-0-0'
p2603
aS'----'
p2604
aS'-0-0'
p2605
aS'----'
p2606
aS'-0-0'
p2607
aS'-0+0'
p2608
aS'----'
p2609
aS'-0+0'
p2610
aS'-0-0'
p2611
aS'----'
p2612
aS'---0'
p2613
aS'-0-0'
p2614
aS'----'
p2615
aS'-0-0'
p2616
aS'----'
p2617
aS'-0-0'
p2618
aS'----'
p2619
asS'pb_l_27'
p2620
(lp2621
S'---0'
p2622
aS'-0-0'
p2623
aS'----'
p2624
aS'-0-0'
p2625
aS'----'
p2626
aS'---0'
p2627
aS'----'
p2628
aS'---0'
p2629
aS'0-+-'
p2630
aS'---0'
p2631
aS'-0-0'
p2632
aS'+---'
p2633
aS'---0'
p2634
aS'----'
p2635
aS'-0-0'
p2636
aS'+-+-'
p2637
aS'----'
p2638
aS'-0-0'
p2639
aS'----'
p2640
aS'-000'
p2641
aS'-0-0'
p2642
aS'0---'
p2643
aS'-0-0'
p2644
aS'----'
p2645
aS'--0-'
p2646
aS'-0-0'
p2647
aS'----'
p2648
aS'-0-0'
p2649
asS'pb_l_26'
p2650
(lp2651
S'-0-0'
p2652
aS'----'
p2653
aS'--0-'
p2654
aS'-0-0'
p2655
aS'----'
p2656
aS'---0'
p2657
aS'-0-0'
p2658
aS'----'
p2659
aS'---0'
p2660
aS'-0-0'
p2661
aS'+-0-'
p2662
aS'----'
p2663
aS'-0-0'
p2664
aS'----'
p2665
aS'-0-0'
p2666
aS'----'
p2667
aS'-0-0'
p2668
aS'----'
p2669
asS'pb_l_25'
p2670
(lp2671
S'-0-0'
p2672
aS'+-+-'
p2673
aS'----'
p2674
aS'-0-0'
p2675
aS'0---'
p2676
aS'----'
p2677
aS'-0-0'
p2678
aS'+---'
p2679
aS'----'
p2680
aS'-0-0'
p2681
aS'----'
p2682
aS'-0-0'
p2683
aS'--+-'
p2684
aS'----'
p2685
aS'-0-0'
p2686
aS'----'
p2687
aS'-0-0'
p2688
aS'----'
p2689
aS'--00'
p2690
aS'-0-0'
p2691
aS'----'
p2692
aS'-0-0'
p2693
aS'----'
p2694
aS'-0-0'
p2695
aS'0---'
p2696
aS'----'
p2697
aS'-0-0'
p2698
aS'0---'
p2699
aS'----'
p2700
asS'pb_l_24'
p2701
(lp2702
S'---0'
p2703
aS'-0-0'
p2704
aS'----'
p2705
aS'---0'
p2706
aS'-0-0'
p2707
aS'----'
p2708
aS'-0-0'
p2709
aS'+-0-'
p2710
aS'---0'
p2711
aS'----'
p2712
aS'---0'
p2713
aS'----'
p2714
aS'--0-'
p2715
aS'-0-0'
p2716
aS'----'
p2717
aS'-0-0'
p2718
aS'----'
p2719
aS'-0-0'
p2720
aS'----'
p2721
aS'-0-0'
p2722
aS'+-+-'
p2723
aS'----'
p2724
aS'-0-0'
p2725
aS'----'
p2726
aS'-0-0'
p2727
aS'0---'
p2728
aS'----'
p2729
asS'pb_l_29'
p2730
(lp2731
S'----'
p2732
aS'---0'
p2733
aS'-0-0'
p2734
aS'----'
p2735
aS'---0'
p2736
aS'-0-0'
p2737
aS'----'
p2738
aS'---0'
p2739
aS'-0-0'
p2740
aS'+-+-'
p2741
aS'----'
p2742
aS'-0-0'
p2743
aS'0---'
p2744
aS'----'
p2745
aS'-0-0'
p2746
aS'+-+-'
p2747
aS'----'
p2748
aS'---0'
p2749
aS'0---'
p2750
aS'---0'
p2751
aS'----'
p2752
aS'-0-0'
p2753
aS'----'
p2754
aS'-0-0'
p2755
aS'0---'
p2756
aS'----'
p2757
aS'--+-'
p2758
aS'----'
p2759
aS'-0-0'
p2760
aS'0-+-'
p2761
aS'-0-0'
p2762
aS'----'
p2763
aS'-0-0'
p2764
aS'+-+-'
p2765
aS'-0-0'
p2766
aS'----'
p2767
aS'-0-0'
p2768
asS'pb_l_28'
p2769
(lp2770
S'----'
p2771
aS'-0-0'
p2772
aS'----'
p2773
aS'-0-0'
p2774
aS'----'
p2775
aS'---0'
p2776
aS'----'
p2777
aS'-0-0'
p2778
aS'----'
p2779
aS'---0'
p2780
aS'-000'
p2781
aS'----'
p2782
aS'---0'
p2783
aS'-0-0'
p2784
aS'----'
p2785
aS'-0-0'
p2786
aS'----'
p2787
aS'--0-'
p2788
aS'----'
p2789
aS'-0-0'
p2790
aS'----'
p2791
asS'u_h_meets_stationary_r_6'
p2792
(lp2793
S'-0-0'
p2794
aS'-0+0'
p2795
aS'-0-0'
p2796
aS'-0+0'
p2797
aS'-0-0'
p2798
aS'-0+0'
p2799
aS'-0-0'
p2800
aS'-0+0'
p2801
aS'-0-0'
p2802
aS'-0+0'
p2803
aS'-0-0'
p2804
aS'00+0'
p2805
aS'-0-0'
p2806
aS'+0+0'
p2807
aS'-0-0'
p2808
aS'+0+0'
p2809
aS'-0-0'
p2810
aS'+000'
p2811
aS'-0-0'
p2812
aS'0000'
p2813
aS'-0-0'
p2814
asS'u_r_meets_stationary_h_11'
p2815
(lp2816
S'+-00'
p2817
aS'0000'
p2818
aS'+-+-'
p2819
aS'---0'
p2820
aS'+-00'
p2821
aS'0000'
p2822
aS'+-+-'
p2823
aS'---0'
p2824
aS'+-0-'
p2825
aS'0000'
p2826
aS'--0-'
p2827
aS'+-00'
p2828
aS'-0-0'
p2829
aS'+-+-'
p2830
aS'+-00'
p2831
aS'--0-'
p2832
aS'-000'
p2833
aS'-0-0'
p2834
aS'+-+-'
p2835
aS'0000'
p2836
aS'+-0-'
p2837
aS'+-00'
p2838
aS'-0-0'
p2839
aS'+-+-'
p2840
aS'+-0-'
p2841
aS'--0-'
p2842
aS'+-+-'
p2843
aS'-0-0'
p2844
aS'+-+-'
p2845
aS'--0-'
p2846
aS'-000'
p2847
aS'+-+-'
p2848
aS'+-0-'
p2849
aS'----'
p2850
aS'+-0-'
p2851
aS'----'
p2852
aS'+-0-'
p2853
aS'-000'
p2854
aS'-0-0'
p2855
aS'+-+-'
p2856
aS'--00'
p2857
aS'-0-0'
p2858
aS'+-+-'
p2859
aS'0-0-'
p2860
aS'---0'
p2861
aS'-0-0'
p2862
aS'-000'
p2863
aS'+-0-'
p2864
aS'----'
p2865
aS'0-0-'
p2866
aS'-000'
p2867
aS'+-0-'
p2868
aS'0-0-'
p2869
aS'--00'
p2870
aS'-000'
p2871
aS'+-+-'
p2872
aS'--0-'
p2873
aS'-000'
p2874
aS'+-+-'
p2875
aS'----'
p2876
aS'+-+-'
p2877
aS'+-0-'
p2878
aS'-000'
p2879
aS'0-0-'
p2880
aS'-000'
p2881
aS'+-0-'
p2882
aS'0-0-'
p2883
aS'+-0-'
p2884
aS'0-0-'
p2885
aS'+---'
p2886
aS'0-0-'
p2887
aS'---0'
p2888
aS'+---'
p2889
aS'0-0-'
p2890
aS'--0-'
p2891
aS'--+0'
p2892
aS'-000'
p2893
aS'+-+-'
p2894
aS'0-0-'
p2895
aS'--+0'
p2896
aS'+-0-'
p2897
aS'--00'
p2898
aS'0-0-'
p2899
aS'--+-'
p2900
aS'-000'
p2901
aS'+-+-'
p2902
aS'--+-'
p2903
aS'+-0-'
p2904
aS'0-0-'
p2905
aS'--00'
p2906
aS'0-0-'
p2907
aS'0-+-'
p2908
aS'--0-'
p2909
aS'+-0-'
p2910
aS'-0+0'
p2911
aS'-000'
p2912
aS'+-+-'
p2913
aS'--00'
p2914
aS'+-+-'
p2915
aS'-000'
p2916
aS'+-+-'
p2917
aS'0-0-'
p2918
aS'--+-'
p2919
aS'0-0-'
p2920
aS'-000'
p2921
aS'-0-0'
p2922
aS'-000'
p2923
aS'+-+-'
p2924
aS'0-+-'
p2925
aS'-000'
p2926
aS'+-+-'
p2927
aS'0-0-'
p2928
aS'-000'
p2929
aS'+-0-'
p2930
aS'--00'
p2931
aS'-000'
p2932
aS'+-+-'
p2933
aS'--0-'
p2934
aS'-000'
p2935
aS'-0-0'
p2936
aS'-000'
p2937
aS'+-+-'
p2938
aS'--00'
p2939
aS'+-+-'
p2940
aS'--+-'
p2941
aS'-000'
p2942
aS'+-+-'
p2943
aS'--00'
p2944
aS'-000'
p2945
aS'+-+-'
p2946
aS'+---'
p2947
aS'--0-'
p2948
aS'+-+-'
p2949
aS'+---'
p2950
aS'--+-'
p2951
aS'0-+-'
p2952
aS'+--0'
p2953
aS'-0-0'
p2954
aS'+-+-'
p2955
aS'0-+-'
p2956
aS'+---'
p2957
aS'+-+-'
p2958
aS'--0-'
p2959
aS'-0-0'
p2960
asS'u_h_pb_l_robot_stationary_15'
p2961
(lp2962
S'-0+0'
p2963
aS'-000'
p2964
aS'-0+0'
p2965
aS'-000'
p2966
aS'-0+0'
p2967
asS'u_h_pb_l_robot_stationary_13'
p2968
(lp2969
S'-0+0'
p2970
aS'-0-0'
p2971
aS'-0+0'
p2972
aS'-0-0'
p2973
asS'u_h_pb_r_robot_stationary_9'
p2974
(lp2975
S'-0-0'
p2976
aS'00-0'
p2977
aS'-0-0'
p2978
asS'pb_l_30'
p2979
(lp2980
S'-0-0'
p2981
aS'----'
p2982
aS'---0'
p2983
aS'----'
p2984
aS'---0'
p2985
aS'----'
p2986
aS'-0-0'
p2987
aS'----'
p2988
aS'--0-'
p2989
aS'----'
p2990
aS'-0-0'
p2991
aS'----'
p2992
aS'---0'
p2993
aS'-0-0'
p2994
aS'----'
p2995
aS'-0-0'
p2996
aS'----'
p2997
aS'-0-0'
p2998
aS'----'
p2999
aS'-0-0'
p3000
asS'pb_l_31'
p3001
(lp3002
S'----'
p3003
aS'---0'
p3004
aS'----'
p3005
aS'-0-0'
p3006
aS'----'
p3007
aS'-0-0'
p3008
aS'----'
p3009
aS'0---'
p3010
aS'----'
p3011
aS'0---'
p3012
aS'--+-'
p3013
aS'----'
p3014
aS'-0-0'
p3015
aS'----'
p3016
aS'-0-0'
p3017
aS'----'
p3018
aS'-0-0'
p3019
aS'----'
p3020
aS'-0-0'
p3021
asS'pb_l_33'
p3022
(lp3023
S'----'
p3024
aS'-0-0'
p3025
aS'----'
p3026
aS'-0-0'
p3027
aS'--+-'
p3028
aS'----'
p3029
aS'-0-0'
p3030
aS'0---'
p3031
aS'----'
p3032
aS'-0-0'
p3033
aS'--+-'
p3034
aS'----'
p3035
aS'-0-0'
p3036
aS'+-+-'
p3037
aS'----'
p3038
aS'-0-0'
p3039
aS'+-0-'
p3040
aS'----'
p3041
aS'-0-0'
p3042
aS'----'
p3043
aS'-0-0'
p3044
asS'pb_l_34'
p3045
(lp3046
S'----'
p3047
aS'---0'
p3048
aS'-0-0'
p3049
aS'----'
p3050
aS'-0-0'
p3051
aS'----'
p3052
aS'-0-0'
p3053
aS'----'
p3054
aS'-0-0'
p3055
aS'+-0-'
p3056
aS'----'
p3057
aS'-0-0'
p3058
aS'0---'
p3059
aS'----'
p3060
aS'-0-0'
p3061
aS'+-0-'
p3062
aS'----'
p3063
aS'-0-0'
p3064
aS'----'
p3065
aS'-0-0'
p3066
asS'pb_l_35'
p3067
(lp3068
S'-0-0'
p3069
aS'----'
p3070
aS'-0-0'
p3071
aS'+---'
p3072
aS'---0'
p3073
aS'----'
p3074
aS'--+-'
p3075
aS'----'
p3076
aS'-0-0'
p3077
aS'-0+0'
p3078
aS'+---'
p3079
aS'----'
p3080
aS'-0-0'
p3081
aS'----'
p3082
aS'---0'
p3083
aS'-0-0'
p3084
aS'+-0-'
p3085
aS'--+-'
p3086
aS'----'
p3087
aS'0---'
p3088
aS'----'
p3089
aS'-0-0'
p3090
aS'----'
p3091
aS'-0-0'
p3092
aS'--+-'
p3093
aS'----'
p3094
aS'-0-0'
p3095
aS'--0-'
p3096
aS'----'
p3097
aS'-0-0'
p3098
aS'0-0-'
p3099
aS'-0-0'
p3100
asS'u_h_pb_r_robot_stationary_14'
p3101
(lp3102
S'-0-0'
p3103
asS'u_h_pb_r_robot_stationary_15'
p3104
(lp3105
S'-0-0'
p3106
aS'-0+0'
p3107
aS'-0-0'
p3108
asS'u_h_pb_r_robot_stationary_10'
p3109
(lp3110
S'-0-0'
p3111
asS'u_h_pb_r_robot_stationary_11'
p3112
(lp3113
S'-0-0'
p3114
asS'u_h_pb_r_robot_stationary_12'
p3115
(lp3116
S'-0-0'
p3117
aS'-000'
p3118
aS'-0-0'
p3119
aS'-000'
p3120
aS'-0-0'
p3121
aS'-000'
p3122
aS'-0-0'
p3123
aS'-000'
p3124
aS'-0-0'
p3125
asS'u_h_pb_r_robot_stationary_13'
p3126
(lp3127
S'-0-0'
p3128
aS'0000'
p3129
aS'-000'
p3130
aS'-0-0'
p3131
asS'pb_r_8'
p3132
(lp3133
S'----'
p3134
aS'-0-0'
p3135
aS'----'
p3136
aS'-0-0'
p3137
aS'0---'
p3138
aS'----'
p3139
aS'-0-0'
p3140
aS'----'
p3141
aS'0-0-'
p3142
aS'----'
p3143
aS'-0-0'
p3144
aS'----'
p3145
aS'+-0-'
p3146
aS'----'
p3147
aS'-0-0'
p3148
aS'+-+-'
p3149
aS'----'
p3150
aS'-0-0'
p3151
aS'0---'
p3152
aS'----'
p3153
aS'--0-'
p3154
aS'----'
p3155
aS'-0-0'
p3156
aS'----'
p3157
asS'pb_r_9'
p3158
(lp3159
S'---0'
p3160
aS'----'
p3161
aS'-0-0'
p3162
aS'----'
p3163
aS'-0-0'
p3164
aS'----'
p3165
aS'---0'
p3166
aS'-0-0'
p3167
aS'0---'
p3168
aS'----'
p3169
aS'-0-0'
p3170
aS'----'
p3171
aS'-0-0'
p3172
aS'----'
p3173
aS'-0-0'
p3174
aS'----'
p3175
aS'-0-0'
p3176
aS'0-0-'
p3177
aS'----'
p3178
aS'-0-0'
p3179
aS'0---'
p3180
aS'----'
p3181
aS'-0-0'
p3182
aS'----'
p3183
asS'pb_r_6'
p3184
(lp3185
S'---0'
p3186
aS'----'
p3187
aS'-0-0'
p3188
aS'0---'
p3189
aS'----'
p3190
aS'---0'
p3191
aS'-0-0'
p3192
aS'--0-'
p3193
aS'----'
p3194
aS'---0'
p3195
aS'-0-0'
p3196
aS'--0-'
p3197
aS'----'
p3198
aS'---0'
p3199
aS'-0-0'
p3200
aS'0-+-'
p3201
aS'----'
p3202
aS'-0-0'
p3203
aS'+-0-'
p3204
aS'--0-'
p3205
aS'----'
p3206
aS'-000'
p3207
aS'-0-0'
p3208
aS'----'
p3209
aS'-0-0'
p3210
aS'0---'
p3211
aS'0-+-'
p3212
aS'----'
p3213
aS'-000'
p3214
aS'-0-0'
p3215
aS'----'
p3216
aS'-0-0'
p3217
aS'----'
p3218
aS'-0-0'
p3219
aS'----'
p3220
aS'-0--'
p3221
aS'-0-0'
p3222
aS'----'
p3223
asS'pb_r_7'
p3224
(lp3225
S'----'
p3226
aS'---0'
p3227
aS'-0-0'
p3228
aS'+---'
p3229
aS'----'
p3230
aS'-0-0'
p3231
aS'0---'
p3232
aS'----'
p3233
aS'---0'
p3234
aS'-0-0'
p3235
aS'0---'
p3236
aS'----'
p3237
aS'---0'
p3238
aS'----'
p3239
aS'-0-0'
p3240
aS'----'
p3241
aS'-0-0'
p3242
aS'-000'
p3243
aS'----'
p3244
aS'--0-'
p3245
aS'----'
p3246
aS'-0-0'
p3247
aS'---0'
p3248
aS'-0-0'
p3249
aS'----'
p3250
aS'-000'
p3251
aS'-0-0'
p3252
aS'0---'
p3253
aS'----'
p3254
asS'pb_r_10'
p3255
(lp3256
S'---0'
p3257
aS'-0-0'
p3258
aS'+---'
p3259
aS'----'
p3260
aS'-0-0'
p3261
aS'+---'
p3262
aS'----'
p3263
aS'-0-0'
p3264
aS'----'
p3265
aS'---0'
p3266
aS'----'
p3267
aS'-0-0'
p3268
aS'----'
p3269
aS'---0'
p3270
aS'----'
p3271
aS'+-+-'
p3272
aS'----'
p3273
aS'-0-0'
p3274
aS'+---'
p3275
aS'----'
p3276
aS'-0-0'
p3277
aS'+---'
p3278
aS'----'
p3279
aS'-0-0'
p3280
aS'----'
p3281
aS'--0-'
p3282
aS'----'
p3283
aS'-0-0'
p3284
aS'----'
p3285
aS'-0-0'
p3286
aS'----'
p3287
aS'-0-0'
p3288
aS'0---'
p3289
aS'-0-0'
p3290
aS'----'
p3291
aS'-0-0'
p3292
aS'----'
p3293
asS'pb_r_11'
p3294
(lp3295
S'00+-'
p3296
aS'0000'
p3297
aS'+-0-'
p3298
aS'+-+-'
p3299
aS'00+-'
p3300
aS'0000'
p3301
aS'+-0-'
p3302
aS'+-+-'
p3303
aS'0000'
p3304
aS'0-0-'
p3305
aS'-0-0'
p3306
aS'0000'
p3307
aS'+-+-'
p3308
aS'-0--'
p3309
aS'00-0'
p3310
aS'+-+-'
p3311
aS'0000'
p3312
aS'+-+-'
p3313
aS'0000'
p3314
aS'+-+-'
p3315
aS'0000'
p3316
aS'+-+-'
p3317
aS'0-0-'
p3318
aS'+-+-'
p3319
aS'+-0-'
p3320
aS'0000'
p3321
aS'+-+-'
p3322
aS'----'
p3323
aS'00--'
p3324
aS'00-0'
p3325
aS'+-+-'
p3326
aS'0---'
p3327
aS'00-0'
p3328
aS'+-+-'
p3329
aS'0-0-'
p3330
aS'0---'
p3331
aS'0-0-'
p3332
aS'00-0'
p3333
aS'000-'
p3334
aS'+-0-'
p3335
aS'0-0-'
p3336
aS'00--'
p3337
aS'000-'
p3338
aS'00-0'
p3339
aS'+-+-'
p3340
aS'+-0-'
p3341
aS'0-0-'
p3342
aS'00-0'
p3343
aS'+-+-'
p3344
aS'000-'
p3345
aS'00--'
p3346
aS'00-0'
p3347
aS'+-+-'
p3348
aS'000-'
p3349
aS'0-0-'
p3350
aS'000-'
p3351
aS'00-0'
p3352
aS'+-+-'
p3353
aS'000-'
p3354
aS'0-+-'
p3355
aS'000-'
p3356
aS'00+-'
p3357
aS'000-'
p3358
aS'00-0'
p3359
aS'+-+-'
p3360
aS'000-'
p3361
aS'00-0'
p3362
aS'+-+-'
p3363
aS'000-'
p3364
aS'-0+-'
p3365
aS'-0+0'
p3366
aS'+-+-'
p3367
aS'--+-'
p3368
aS'0-+-'
p3369
aS'-0+0'
p3370
aS'0-+-'
p3371
aS'----'
p3372
aS'-0+0'
p3373
aS'+-+-'
p3374
aS'----'
p3375
aS'0-+-'
p3376
aS'-0+0'
p3377
aS'-0-0'
p3378
aS'+-+-'
p3379
aS'--+-'
p3380
aS'0-+-'
p3381
aS'-0+0'
p3382
aS'+-+-'
p3383
aS'--+-'
p3384
aS'0-+-'
p3385
aS'-0+0'
p3386
aS'+-+-'
p3387
aS'0-+-'
p3388
aS'+-+-'
p3389
aS'0-+-'
p3390
aS'--+-'
p3391
aS'-0+0'
p3392
aS'+-+-'
p3393
aS'--+-'
p3394
aS'+-+-'
p3395
aS'00+0'
p3396
aS'-0+0'
p3397
aS'+-+-'
p3398
aS'+-+0'
p3399
aS'00+0'
p3400
asS'pb_r_12'
p3401
(lp3402
S'---0'
p3403
aS'-0-0'
p3404
aS'----'
p3405
aS'-0-0'
p3406
aS'0---'
p3407
aS'----'
p3408
aS'---0'
p3409
aS'-0-0'
p3410
aS'+---'
p3411
aS'----'
p3412
aS'-0-0'
p3413
aS'+---'
p3414
aS'----'
p3415
aS'-0-0'
p3416
aS'+-0-'
p3417
aS'----'
p3418
aS'---0'
p3419
aS'+0+0'
p3420
aS'----'
p3421
aS'-0-0'
p3422
aS'----'
p3423
aS'-0-0'
p3424
aS'-000'
p3425
aS'-0-0'
p3426
aS'+---'
p3427
aS'----'
p3428
aS'-0-0'
p3429
aS'+---'
p3430
aS'----'
p3431
aS'-0-0'
p3432
aS'----'
p3433
aS'-0-0'
p3434
aS'0---'
p3435
aS'----'
p3436
aS'-0-0'
p3437
aS'0-0-'
p3438
aS'----'
p3439
asS'pb_r_13'
p3440
(lp3441
S'-0-0'
p3442
aS'----'
p3443
aS'---0'
p3444
aS'-0-0'
p3445
aS'+-0-'
p3446
aS'----'
p3447
aS'---0'
p3448
aS'-0-0'
p3449
aS'0---'
p3450
aS'----'
p3451
aS'-0-0'
p3452
aS'0---'
p3453
aS'----'
p3454
aS'-0-0'
p3455
aS'----'
p3456
aS'--+-'
p3457
aS'----'
p3458
aS'-0-0'
p3459
aS'----'
p3460
aS'-0-0'
p3461
aS'----'
p3462
aS'-0-0'
p3463
aS'----'
p3464
aS'-0-0'
p3465
aS'----'
p3466
aS'-0-0'
p3467
aS'0---'
p3468
aS'----'
p3469
asS'pb_r_14'
p3470
(lp3471
S'----'
p3472
aS'---0'
p3473
aS'----'
p3474
aS'-0-0'
p3475
aS'----'
p3476
aS'---0'
p3477
aS'-0-0'
p3478
aS'----'
p3479
aS'-0-0'
p3480
aS'----'
p3481
aS'-0+0'
p3482
aS'----'
p3483
aS'-0-0'
p3484
aS'--+-'
p3485
aS'----'
p3486
aS'00+0'
p3487
aS'-0-0'
p3488
aS'----'
p3489
aS'0---'
p3490
aS'----'
p3491
aS'-0-0'
p3492
aS'+-0-'
p3493
aS'----'
p3494
asS'pb_r_15'
p3495
(lp3496
S'-0-0'
p3497
aS'----'
p3498
aS'---0'
p3499
aS'-0-0'
p3500
aS'+---'
p3501
aS'----'
p3502
aS'---0'
p3503
aS'----'
p3504
aS'-0-0'
p3505
aS'----'
p3506
aS'-0-0'
p3507
aS'----'
p3508
aS'-0-0'
p3509
aS'+---'
p3510
aS'----'
p3511
aS'--0-'
p3512
aS'----'
p3513
aS'-0-0'
p3514
aS'+-+-'
p3515
aS'----'
p3516
aS'+---'
p3517
aS'-0-0'
p3518
aS'----'
p3519
aS'-0-0'
p3520
aS'0---'
p3521
aS'----'
p3522
aS'-0-0'
p3523
aS'----'
p3524
aS'-0--'
p3525
aS'-0-0'
p3526
asS'pb_r_16'
p3527
(lp3528
S'--+0'
p3529
aS'-0+0'
p3530
aS'--++'
p3531
aS'+-+0'
p3532
aS'--+0'
p3533
aS'--++'
p3534
aS'--+0'
p3535
aS'--++'
p3536
aS'0--0'
p3537
aS'--+0'
p3538
aS'--++'
p3539
aS'--+0'
p3540
aS'--++'
p3541
aS'--+0'
p3542
aS'--++'
p3543
aS'--+0'
p3544
aS'--++'
p3545
aS'--+0'
p3546
aS'0-++'
p3547
aS'--++'
p3548
aS'-0+0'
p3549
aS'--++'
p3550
aS'--+0'
p3551
aS'-0+0'
p3552
aS'0-++'
p3553
aS'--0+'
p3554
aS'--++'
p3555
aS'-0+0'
p3556
aS'--++'
p3557
aS'-0+0'
p3558
aS'0-++'
p3559
aS'--++'
p3560
aS'-0+0'
p3561
aS'--++'
p3562
aS'-0-0'
p3563
aS'-0+0'
p3564
asS'pb_r_17'
p3565
(lp3566
S'-0+0'
p3567
aS'+-0+'
p3568
aS'--+0'
p3569
aS'-0+0'
p3570
aS'+-++'
p3571
aS'--+0'
p3572
aS'--++'
p3573
aS'--+0'
p3574
aS'-0+0'
p3575
aS'--++'
p3576
aS'--+0'
p3577
aS'-0+0'
p3578
aS'--++'
p3579
aS'--+0'
p3580
aS'-0+0'
p3581
aS'--++'
p3582
aS'-0+0'
p3583
aS'0-++'
p3584
aS'--++'
p3585
aS'--+0'
p3586
aS'-0+0'
p3587
aS'--++'
p3588
aS'-0+0'
p3589
aS'--++'
p3590
aS'--+0'
p3591
aS'--++'
p3592
aS'--+0'
p3593
aS'-0+0'
p3594
aS'+-++'
p3595
aS'---+'
p3596
aS'--++'
p3597
aS'-0+0'
p3598
aS'0-++'
p3599
aS'---0'
p3600
aS'--++'
p3601
aS'-0+0'
p3602
aS'-0-0'
p3603
aS'+-++'
p3604
aS'--+0'
p3605
aS'--++'
p3606
aS'-0+0'
p3607
aS'---+'
p3608
aS'--++'
p3609
aS'--+0'
p3610
aS'-0-0'
p3611
aS'-0+0'
p3612
aS'+-++'
p3613
aS'--++'
p3614
aS'-0+0'
p3615
aS'+-0+'
p3616
aS'--++'
p3617
aS'---+'
p3618
aS'--++'
p3619
aS'-0+0'
p3620
aS'-0-0'
p3621
aS'+--+'
p3622
aS'--++'
p3623
asS'pb_l_12'
p3624
(lp3625
S'--+0'
p3626
aS'--00'
p3627
aS'-000'
p3628
aS'-0+0'
p3629
aS'--++'
p3630
aS'--00'
p3631
aS'-0+0'
p3632
aS'+-0+'
p3633
aS'--+0'
p3634
aS'--++'
p3635
aS'--00'
p3636
aS'-0+0'
p3637
aS'--+0'
p3638
aS'--00'
p3639
aS'-0+0'
p3640
aS'0-0+'
p3641
aS'--+0'
p3642
aS'-0+0'
p3643
aS'--++'
p3644
aS'--+0'
p3645
aS'-0+0'
p3646
aS'0-0+'
p3647
aS'--++'
p3648
aS'--+0'
p3649
aS'-0+0'
p3650
aS'0-++'
p3651
aS'--++'
p3652
aS'-0+0'
p3653
aS'--++'
p3654
aS'--+0'
p3655
aS'--++'
p3656
aS'-0+0'
p3657
aS'+-0+'
p3658
aS'--+0'
p3659
aS'--++'
p3660
aS'-0+0'
p3661
aS'--++'
p3662
aS'--+0'
p3663
aS'0-0+'
p3664
aS'--+0'
p3665
aS'--0+'
p3666
aS'--++'
p3667
aS'-0+0'
p3668
aS'--++'
p3669
aS'-0+0'
p3670
aS'--++'
p3671
aS'-0+0'
p3672
aS'--++'
p3673
aS'-0+0'
p3674
aS'--++'
p3675
aS'-0+0'
p3676
aS'--++'
p3677
aS'-0+0'
p3678
asS'pb_r_19'
p3679
(lp3680
S'--+0'
p3681
aS'--00'
p3682
aS'-000'
p3683
aS'-0+0'
p3684
aS'+--0'
p3685
aS'--00'
p3686
aS'--+0'
p3687
aS'-0+0'
p3688
aS'---+'
p3689
aS'-0+0'
p3690
aS'+--+'
p3691
aS'--+0'
p3692
aS'-0+0'
p3693
aS'--++'
p3694
aS'--+0'
p3695
aS'--++'
p3696
aS'--+0'
p3697
aS'-0+0'
p3698
aS'+-++'
p3699
aS'--+0'
p3700
aS'-0+0'
p3701
aS'--++'
p3702
aS'0-++'
p3703
aS'--+0'
p3704
aS'--++'
p3705
aS'-0+0'
p3706
aS'--++'
p3707
aS'--+0'
p3708
aS'-0+0'
p3709
aS'--++'
p3710
aS'---+'
p3711
aS'--+0'
p3712
aS'-0+0'
p3713
aS'+-++'
p3714
aS'--++'
p3715
aS'--+0'
p3716
aS'--++'
p3717
aS'-0+0'
p3718
aS'--++'
p3719
asS'pb_l_10'
p3720
(lp3721
S'-0+0'
p3722
aS'--++'
p3723
aS'0-+0'
p3724
aS'-0+0'
p3725
aS'+-0+'
p3726
aS'--+0'
p3727
aS'--++'
p3728
aS'-0+0'
p3729
aS'--++'
p3730
aS'-0+0'
p3731
aS'+--+'
p3732
aS'--+0'
p3733
aS'-0+0'
p3734
aS'+-0+'
p3735
aS'--++'
p3736
aS'-0+0'
p3737
aS'+-0+'
p3738
aS'--+0'
p3739
aS'--++'
p3740
aS'-0+0'
p3741
aS'--++'
p3742
aS'-0+0'
p3743
aS'--++'
p3744
aS'-0+0'
p3745
aS'--++'
p3746
aS'--+0'
p3747
aS'-0+0'
p3748
aS'--++'
p3749
aS'--+0'
p3750
aS'--++'
p3751
aS'-0+0'
p3752
aS'--++'
p3753
aS'-000'
p3754
aS'-0+0'
p3755
aS'+-++'
p3756
aS'--++'
p3757
aS'---+'
p3758
aS'--++'
p3759
aS'---+'
p3760
aS'--++'
p3761
aS'-0+0'
p3762
aS'+-0+'
p3763
aS'--++'
p3764
aS'-0+0'
p3765
aS'+--+'
p3766
aS'--++'
p3767
aS'+--+'
p3768
aS'-0+0'
p3769
aS'--++'
p3770
aS'-0+0'
p3771
asS'pb_l_11'
p3772
(lp3773
S'---0'
p3774
aS'-0+0'
p3775
aS'---0'
p3776
aS'--+0'
p3777
aS'-000'
p3778
aS'-0+0'
p3779
aS'--++'
p3780
aS'--+0'
p3781
aS'--++'
p3782
aS'--+0'
p3783
aS'-0+0'
p3784
aS'--++'
p3785
aS'--+0'
p3786
aS'-0+0'
p3787
aS'0-++'
p3788
aS'--+0'
p3789
aS'--++'
p3790
aS'--+0'
p3791
aS'-0+0'
p3792
aS'--++'
p3793
aS'--+0'
p3794
aS'--++'
p3795
aS'--+0'
p3796
aS'-0+0'
p3797
aS'--++'
p3798
aS'--+0'
p3799
aS'--00'
p3800
aS'--++'
p3801
aS'--+0'
p3802
aS'--++'
p3803
aS'-0+0'
p3804
aS'--++'
p3805
aS'-0+0'
p3806
aS'--++'
p3807
aS'-0+0'
p3808
aS'--++'
p3809
aS'-0+0'
p3810
aS'+--+'
p3811
aS'--++'
p3812
aS'-0+0'
p3813
aS'+--+'
p3814
aS'--++'
p3815
aS'-0+0'
p3816
aS'--++'
p3817
aS'-0+0'
p3818
asS'pb_l_16'
p3819
(lp3820
S'-0-0'
p3821
aS'----'
p3822
aS'--00'
p3823
aS'----'
p3824
aS'-0-0'
p3825
aS'+-+-'
p3826
aS'----'
p3827
aS'0-+-'
p3828
aS'----'
p3829
aS'-0-0'
p3830
aS'+-0-'
p3831
aS'----'
p3832
aS'-0-0'
p3833
aS'----'
p3834
aS'-0-0'
p3835
aS'----'
p3836
aS'-0-0'
p3837
aS'----'
p3838
asS'pb_l_17'
p3839
(lp3840
S'-0-0'
p3841
aS'----'
p3842
aS'-0-0'
p3843
aS'----'
p3844
aS'-0-0'
p3845
aS'--0-'
p3846
aS'----'
p3847
aS'-0-0'
p3848
aS'----'
p3849
aS'-0-0'
p3850
aS'--+-'
p3851
aS'----'
p3852
aS'-0-0'
p3853
aS'----'
p3854
aS'-0-0'
p3855
aS'0---'
p3856
aS'----'
p3857
asS'pb_l_14'
p3858
(lp3859
S'--+0'
p3860
aS'-0+0'
p3861
aS'0-+0'
p3862
aS'--+0'
p3863
aS'-0+0'
p3864
aS'--++'
p3865
aS'--+0'
p3866
aS'-0+0'
p3867
aS'--++'
p3868
aS'--+0'
p3869
aS'-0+0'
p3870
aS'--++'
p3871
aS'--+0'
p3872
aS'---0'
p3873
aS'--+0'
p3874
aS'--++'
p3875
aS'--+0'
p3876
aS'-0+0'
p3877
aS'--++'
p3878
aS'--+0'
p3879
aS'-0+0'
p3880
aS'--++'
p3881
aS'--+0'
p3882
aS'--++'
p3883
aS'-0+0'
p3884
aS'--++'
p3885
aS'--0+'
p3886
aS'-0+0'
p3887
aS'--++'
p3888
aS'-0+0'
p3889
aS'+--+'
p3890
aS'--++'
p3891
aS'--+0'
p3892
aS'-0+0'
p3893
aS'--++'
p3894
aS'-0+0'
p3895
aS'--++'
p3896
aS'+-0+'
p3897
aS'--++'
p3898
aS'-0+0'
p3899
aS'---+'
p3900
asS'pb_l_15'
p3901
(lp3902
S'--+0'
p3903
aS'-0+0'
p3904
aS'--++'
p3905
aS'--+0'
p3906
aS'-0+0'
p3907
aS'+-++'
p3908
aS'--+0'
p3909
aS'-0+0'
p3910
aS'+-++'
p3911
aS'--++'
p3912
aS'--+0'
p3913
aS'--++'
p3914
aS'--+0'
p3915
aS'-0+0'
p3916
aS'--++'
p3917
aS'--+0'
p3918
aS'-0+0'
p3919
aS'--++'
p3920
aS'--+0'
p3921
aS'--++'
p3922
aS'-0+0'
p3923
aS'--++'
p3924
aS'--+0'
p3925
aS'-0+0'
p3926
aS'--++'
p3927
aS'-0+0'
p3928
aS'--++'
p3929
aS'--+0'
p3930
aS'--++'
p3931
aS'--+0'
p3932
aS'-0+0'
p3933
aS'--++'
p3934
aS'-0+0'
p3935
aS'--++'
p3936
aS'-0+0'
p3937
asS'u_h_pb_l_robot_stationary_12'
p3938
(lp3939
S'-0+0'
p3940
aS'-0-0'
p3941
aS'+0+0'
p3942
aS'-0+0'
p3943
asS'ot_rotl_19'
p3944
(lp3945
S'+-+0'
p3946
aS'0000'
p3947
aS'--+-'
p3948
aS'+-+-'
p3949
aS'----'
p3950
aS'-000'
p3951
aS'0000'
p3952
aS'+-+-'
p3953
aS'0---'
p3954
aS'+-+-'
p3955
aS'--+-'
p3956
aS'+-+-'
p3957
aS'00-0'
p3958
aS'+-+-'
p3959
aS'+---'
p3960
aS'--0-'
p3961
aS'+-+-'
p3962
aS'0000'
p3963
aS'+0-0'
p3964
aS'+-+-'
p3965
aS'+-0-'
p3966
aS'+0-0'
p3967
aS'-000'
p3968
aS'00-0'
p3969
aS'+-+-'
p3970
aS'0000'
p3971
aS'00-0'
p3972
aS'+-+-'
p3973
aS'+-0-'
p3974
aS'+-+-'
p3975
aS'-000'
p3976
aS'-0-0'
p3977
aS'+-+-'
p3978
aS'0-+-'
p3979
aS'0-00'
p3980
aS'-000'
p3981
aS'+-+-'
p3982
aS'0-+-'
p3983
aS'+-0-'
p3984
aS'-000'
p3985
aS'+-+-'
p3986
aS'--0-'
p3987
aS'+-+-'
p3988
aS'+-0-'
p3989
aS'0-0-'
p3990
aS'-0-0'
p3991
aS'+-+-'
p3992
aS'+-0-'
p3993
aS'0-0-'
p3994
aS'-0-0'
p3995
aS'+-+-'
p3996
aS'0-0-'
p3997
aS'-000'
p3998
aS'-0-0'
p3999
aS'+-+-'
p4000
aS'0000'
p4001
aS'-000'
p4002
aS'+-+-'
p4003
asS'u_h_pb_l_robot_stationary_10'
p4004
(lp4005
S'-0+0'
p4006
aS'0000'
p4007
aS'-0+0'
p4008
aS'-000'
p4009
aS'-0+0'
p4010
aS'-000'
p4011
aS'-0+0'
p4012
asS'u_h_pb_l_robot_stationary_11'
p4013
(lp4014
S'-000'
p4015
aS'-0+0'
p4016
aS'-000'
p4017
aS'+0+0'
p4018
aS'-0+0'
p4019
aS'-000'
p4020
aS'-0+0'
p4021
aS'00+0'
p4022
aS'-0+0'
p4023
asS'u_h_pb_l_robot_stationary_14'
p4024
(lp4025
S'-0+0'
p4026
aS'+0+0'
p4027
aS'-0+0'
p4028
aS'-000'
p4029
aS'-0+0'
p4030
asS'ot_rotl_18'
p4031
(lp4032
S'0000'
p4033
aS'+-00'
p4034
aS'0000'
p4035
aS'+-+-'
p4036
aS'---0'
p4037
aS'+-00'
p4038
aS'0000'
p4039
aS'0-+-'
p4040
aS'+0-0'
p4041
aS'+-0-'
p4042
aS'----'
p4043
aS'0000'
p4044
aS'+-+-'
p4045
aS'+-0-'
p4046
aS'0---'
p4047
aS'00-0'
p4048
aS'-0+0'
p4049
aS'0000'
p4050
aS'+-0-'
p4051
aS'0-+-'
p4052
aS'---0'
p4053
aS'0000'
p4054
aS'-0+0'
p4055
aS'+-+-'
p4056
aS'--0-'
p4057
aS'0-0-'
p4058
aS'-0+0'
p4059
aS'-000'
p4060
aS'+-+-'
p4061
aS'--+-'
p4062
aS'0-+-'
p4063
aS'+-+-'
p4064
aS'0000'
p4065
aS'+-+-'
p4066
aS'-000'
p4067
aS'+-+-'
p4068
aS'-0-0'
p4069
aS'+-+-'
p4070
aS'-000'
p4071
aS'+-+-'
p4072
aS'0000'
p4073
aS'0-00'
p4074
aS'-000'
p4075
aS'+-+-'
p4076
aS'0-+-'
p4077
aS'+-+-'
p4078
aS'-000'
p4079
aS'+---'
p4080
aS'+-0-'
p4081
aS'-0-0'
p4082
aS'0000'
p4083
aS'+-+-'
p4084
aS'+0+0'
p4085
aS'+-+-'
p4086
aS'+---'
p4087
aS'-0-0'
p4088
aS'00+0'
p4089
aS'+-+-'
p4090
aS'-000'
p4091
aS'-0+0'
p4092
aS'+-+-'
p4093
aS'-0+0'
p4094
aS'+-+-'
p4095
aS'0-0-'
p4096
aS'-000'
p4097
aS'+-+-'
p4098
aS'0-+-'
p4099
aS'0-0-'
p4100
aS'+-+-'
p4101
aS'--0-'
p4102
aS'-000'
p4103
asS'u_r_meets_stationary_h_10'
p4104
(lp4105
S'+-00'
p4106
aS'0-00'
p4107
aS'-000'
p4108
aS'+-+-'
p4109
aS'+-00'
p4110
aS'---0'
p4111
aS'-000'
p4112
aS'+-+-'
p4113
aS'+-0-'
p4114
aS'----'
p4115
aS'+-0-'
p4116
aS'-000'
p4117
aS'-0-0'
p4118
aS'+-+-'
p4119
aS'0-00'
p4120
aS'---0'
p4121
aS'+-0-'
p4122
aS'--0-'
p4123
aS'0-00'
p4124
aS'-000'
p4125
aS'0-0-'
p4126
aS'--00'
p4127
aS'0-0-'
p4128
aS'+-0-'
p4129
aS'0-0-'
p4130
aS'---0'
p4131
aS'+-+-'
p4132
aS'--0-'
p4133
aS'0-0-'
p4134
aS'--0-'
p4135
aS'+-0-'
p4136
aS'-000'
p4137
aS'+-+-'
p4138
aS'0-0-'
p4139
aS'----'
p4140
aS'-000'
p4141
aS'+-+-'
p4142
aS'--00'
p4143
aS'0-0-'
p4144
aS'-000'
p4145
aS'+-+-'
p4146
aS'0-0-'
p4147
aS'--00'
p4148
aS'0-0-'
p4149
aS'--0-'
p4150
aS'-000'
p4151
aS'+-+-'
p4152
aS'0-0-'
p4153
aS'--00'
p4154
aS'-0-0'
p4155
aS'+-+-'
p4156
aS'0-0-'
p4157
aS'-0-0'
p4158
aS'-000'
p4159
aS'+-+-'
p4160
aS'+-0-'
p4161
aS'----'
p4162
aS'-000'
p4163
aS'+-+-'
p4164
aS'+---'
p4165
aS'--+-'
p4166
aS'-000'
p4167
aS'+-+-'
p4168
aS'0-0-'
p4169
aS'--+0'
p4170
aS'+-+-'
p4171
aS'--00'
p4172
aS'0-+-'
p4173
aS'0-0-'
p4174
aS'-0-0'
p4175
aS'+-+-'
p4176
aS'--0-'
p4177
aS'0-0-'
p4178
aS'--+0'
p4179
aS'-000'
p4180
aS'+-+-'
p4181
aS'+-0-'
p4182
aS'--+-'
p4183
aS'-000'
p4184
aS'+-+-'
p4185
aS'0-+-'
p4186
aS'0-0-'
p4187
aS'--00'
p4188
aS'-000'
p4189
aS'+-+-'
p4190
aS'0-0-'
p4191
aS'-000'
p4192
aS'+-+-'
p4193
aS'0-0-'
p4194
aS'--+-'
p4195
aS'-000'
p4196
aS'+-+-'
p4197
aS'0-0-'
p4198
aS'--0-'
p4199
aS'-000'
p4200
aS'+-0-'
p4201
aS'0-+-'
p4202
aS'---0'
p4203
aS'+-+-'
p4204
aS'0-+-'
p4205
aS'-000'
p4206
aS'--00'
p4207
aS'-0-0'
p4208
aS'+-+-'
p4209
aS'--+-'
p4210
aS'--0-'
p4211
aS'-000'
p4212
aS'+-+-'
p4213
aS'0-0-'
p4214
aS'--00'
p4215
aS'-000'
p4216
aS'+-+-'
p4217
aS'--+-'
p4218
aS'0-0-'
p4219
aS'--00'
p4220
aS'-0-0'
p4221
aS'-000'
p4222
aS'+-+-'
p4223
aS'0-0-'
p4224
aS'----'
p4225
aS'-000'
p4226
aS'+-+-'
p4227
aS'--0-'
p4228
aS'-000'
p4229
aS'+-+-'
p4230
aS'+-0-'
p4231
aS'-0-0'
p4232
aS'+-+-'
p4233
aS'--00'
p4234
aS'0---'
p4235
aS'0-+-'
p4236
aS'+-+-'
p4237
aS'----'
p4238
aS'-0-0'
p4239
aS'+-+-'
p4240
aS'--0-'
p4241
asS'ot_rotr_28'
p4242
(lp4243
S'+-00'
p4244
aS'+-0+'
p4245
aS'0000'
p4246
aS'-0+0'
p4247
aS'+-++'
p4248
aS'+-0+'
p4249
aS'0-00'
p4250
aS'0000'
p4251
aS'-0+0'
p4252
aS'+--+'
p4253
aS'+-0+'
p4254
aS'+--+'
p4255
aS'0--+'
p4256
aS'0-00'
p4257
aS'0000'
p4258
aS'-0-0'
p4259
aS'+--+'
p4260
aS'-0-0'
p4261
aS'0000'
p4262
aS'+--+'
p4263
aS'---+'
p4264
aS'+--+'
p4265
aS'0--+'
p4266
aS'0-0+'
p4267
aS'0000'
p4268
aS'+--+'
p4269
aS'0-++'
p4270
aS'+-0+'
p4271
aS'-0+0'
p4272
aS'+--+'
p4273
aS'0-00'
p4274
aS'-0+0'
p4275
aS'+--+'
p4276
aS'0-0+'
p4277
aS'-000'
p4278
aS'+--+'
p4279
aS'0--+'
p4280
aS'-0+0'
p4281
aS'+--+'
p4282
aS'0-00'
p4283
aS'-0+0'
p4284
aS'+--+'
p4285
aS'0-0+'
p4286
aS'-0+0'
p4287
aS'+--+'
p4288
asS'ot_rotr_29'
p4289
(lp4290
S'+--+'
p4291
aS'+-0+'
p4292
aS'+--+'
p4293
aS'+-0+'
p4294
aS'0-+0'
p4295
aS'-0+0'
p4296
aS'0000'
p4297
aS'+--+'
p4298
aS'-0+0'
p4299
aS'0000'
p4300
aS'+--+'
p4301
aS'---+'
p4302
aS'+--+'
p4303
aS'0-0+'
p4304
aS'-000'
p4305
aS'0000'
p4306
aS'+--+'
p4307
aS'0--+'
p4308
aS'0000'
p4309
aS'-0+0'
p4310
aS'+--+'
p4311
aS'-000'
p4312
aS'+--+'
p4313
aS'+-0+'
p4314
aS'+--+'
p4315
aS'0-0+'
p4316
aS'0000'
p4317
aS'+--+'
p4318
aS'00+0'
p4319
aS'+--+'
p4320
aS'+-0+'
p4321
aS'---+'
p4322
aS'00+0'
p4323
aS'+--+'
p4324
aS'---+'
p4325
aS'+-0+'
p4326
aS'---+'
p4327
aS'-000'
p4328
aS'00+0'
p4329
aS'+--+'
p4330
aS'0-0+'
p4331
aS'00+0'
p4332
aS'-0+0'
p4333
aS'+--+'
p4334
asS'ot_rotr_22'
p4335
(lp4336
S'+-0+'
p4337
aS'0000'
p4338
aS'+--+'
p4339
aS'--0+'
p4340
aS'+-0+'
p4341
aS'0000'
p4342
aS'+--+'
p4343
aS'---+'
p4344
aS'0-00'
p4345
aS'0000'
p4346
aS'-0-0'
p4347
aS'+--+'
p4348
aS'0--+'
p4349
aS'0000'
p4350
aS'+--+'
p4351
aS'--00'
p4352
aS'0000'
p4353
aS'+--+'
p4354
aS'+-0+'
p4355
aS'-0+0'
p4356
aS'0000'
p4357
aS'+--+'
p4358
aS'0000'
p4359
aS'-0+0'
p4360
aS'+--+'
p4361
aS'0-00'
p4362
aS'-0+0'
p4363
aS'-000'
p4364
aS'+--+'
p4365
aS'0-00'
p4366
aS'+--+'
p4367
aS'0000'
p4368
aS'+--+'
p4369
aS'+000'
p4370
aS'-0+0'
p4371
aS'+--+'
p4372
aS'+-0+'
p4373
aS'0--+'
p4374
aS'0-0+'
p4375
aS'0000'
p4376
aS'+--+'
p4377
aS'-0-0'
p4378
aS'+--+'
p4379
aS'-0+0'
p4380
aS'0000'
p4381
aS'+--+'
p4382
aS'0--+'
p4383
aS'+-++'
p4384
aS'0-0+'
p4385
aS'+--+'
p4386
aS'-0+0'
p4387
aS'+--+'
p4388
aS'0-0+'
p4389
aS'+--+'
p4390
aS'+-++'
p4391
asS'ot_rotr_23'
p4392
(lp4393
S'+-00'
p4394
aS'0000'
p4395
aS'+--+'
p4396
aS'0-++'
p4397
aS'---0'
p4398
aS'0000'
p4399
aS'+--+'
p4400
aS'0-++'
p4401
aS'+-0+'
p4402
aS'0000'
p4403
aS'+-0+'
p4404
aS'0000'
p4405
aS'-000'
p4406
aS'0000'
p4407
aS'+--+'
p4408
aS'0--+'
p4409
aS'-0-0'
p4410
aS'0000'
p4411
aS'+--+'
p4412
aS'-0-0'
p4413
aS'-000'
p4414
aS'+--+'
p4415
aS'-0-0'
p4416
aS'-0+0'
p4417
aS'+--+'
p4418
aS'-0+0'
p4419
aS'+--+'
p4420
aS'+-0+'
p4421
aS'0000'
p4422
aS'+--+'
p4423
aS'0000'
p4424
aS'+--+'
p4425
aS'0-00'
p4426
aS'-0+0'
p4427
aS'+000'
p4428
aS'+--+'
p4429
aS'+-0+'
p4430
aS'0000'
p4431
aS'00+0'
p4432
aS'+--+'
p4433
aS'-000'
p4434
aS'0000'
p4435
aS'+--+'
p4436
aS'-000'
p4437
aS'0000'
p4438
aS'+--+'
p4439
aS'---0'
p4440
aS'+-0+'
p4441
aS'0000'
p4442
aS'-000'
p4443
aS'-0+0'
p4444
aS'+--+'
p4445
aS'0-0+'
p4446
aS'+--+'
p4447
aS'-000'
p4448
aS'-0+0'
p4449
aS'+--+'
p4450
aS'-000'
p4451
aS'0-++'
p4452
aS'0-0+'
p4453
aS'-000'
p4454
aS'+--+'
p4455
aS'+-++'
p4456
asS'ot_rotr_20'
p4457
(lp4458
S'+-00'
p4459
aS'+--+'
p4460
aS'0000'
p4461
aS'+-0+'
p4462
aS'--++'
p4463
aS'+--+'
p4464
aS'0000'
p4465
aS'+--+'
p4466
aS'--0+'
p4467
aS'0-00'
p4468
aS'+-0+'
p4469
aS'0000'
p4470
aS'+--+'
p4471
aS'0-00'
p4472
aS'0000'
p4473
aS'-000'
p4474
aS'+--+'
p4475
aS'-0+0'
p4476
aS'0000'
p4477
aS'-0+0'
p4478
aS'+--+'
p4479
aS'+-0+'
p4480
aS'0-+0'
p4481
aS'-000'
p4482
aS'+--+'
p4483
aS'+-0+'
p4484
aS'0000'
p4485
aS'-000'
p4486
aS'+--+'
p4487
aS'0-++'
p4488
aS'+--+'
p4489
aS'0-0+'
p4490
aS'+-0+'
p4491
aS'0-00'
p4492
aS'-0+0'
p4493
aS'+--+'
p4494
aS'0-0+'
p4495
aS'+-0+'
p4496
aS'0-0+'
p4497
aS'-000'
p4498
aS'0000'
p4499
aS'+--+'
p4500
aS'+000'
p4501
aS'-000'
p4502
aS'+--+'
p4503
aS'+000'
p4504
aS'-0-0'
p4505
aS'-000'
p4506
aS'+--+'
p4507
aS'+-0+'
p4508
aS'0--+'
p4509
aS'0-0+'
p4510
aS'+--+'
p4511
aS'0-0+'
p4512
aS'00+0'
p4513
aS'+--+'
p4514
aS'0--+'
p4515
asS'ot_rotr_21'
p4516
(lp4517
S'0-00'
p4518
aS'0000'
p4519
aS'+--+'
p4520
aS'---+'
p4521
aS'--++'
p4522
aS'-000'
p4523
aS'+--+'
p4524
aS'--0+'
p4525
aS'--++'
p4526
asS'ot_rotr_26'
p4527
(lp4528
S'0000'
p4529
aS'+--+'
p4530
aS'+-0+'
p4531
aS'0000'
p4532
aS'+--+'
p4533
aS'+-++'
p4534
aS'+--+'
p4535
aS'+-0+'
p4536
aS'0-00'
p4537
aS'-0-0'
p4538
aS'0000'
p4539
aS'+--+'
p4540
aS'---+'
p4541
aS'+--+'
p4542
aS'0000'
p4543
aS'-0-0'
p4544
aS'-000'
p4545
aS'+--+'
p4546
aS'0-0+'
p4547
aS'+--+'
p4548
aS'0-00'
p4549
aS'-0+0'
p4550
aS'+--+'
p4551
aS'-0+0'
p4552
aS'+--+'
p4553
aS'0-++'
p4554
aS'0000'
p4555
aS'+--+'
p4556
aS'0-0+'
p4557
aS'+--+'
p4558
aS'+-0+'
p4559
aS'--++'
p4560
aS'+--+'
p4561
aS'0-0+'
p4562
aS'-0+0'
p4563
aS'+--+'
p4564
aS'0--+'
p4565
aS'0-0+'
p4566
aS'-000'
p4567
aS'+--+'
p4568
aS'--0+'
p4569
aS'+--+'
p4570
aS'0000'
p4571
aS'-0+0'
p4572
aS'+--+'
p4573
aS'0000'
p4574
aS'-0+0'
p4575
aS'+--+'
p4576
asS'ot_rotr_27'
p4577
(lp4578
S'+-00'
p4579
aS'+-0+'
p4580
aS'+-00'
p4581
aS'0000'
p4582
aS'---+'
p4583
aS'0-00'
p4584
aS'+--+'
p4585
aS'+-0+'
p4586
aS'0000'
p4587
aS'+--+'
p4588
aS'0-00'
p4589
aS'0-0+'
p4590
aS'0000'
p4591
aS'-0-0'
p4592
aS'+--+'
p4593
aS'0-0+'
p4594
aS'0--+'
p4595
aS'+--+'
p4596
aS'0000'
p4597
aS'+--+'
p4598
aS'0-++'
p4599
aS'-000'
p4600
aS'+--+'
p4601
aS'0-00'
p4602
aS'-000'
p4603
aS'+--+'
p4604
aS'+-0+'
p4605
aS'+--+'
p4606
aS'-000'
p4607
aS'+--+'
p4608
aS'-000'
p4609
aS'+--+'
p4610
aS'0--+'
p4611
aS'-000'
p4612
aS'+--+'
p4613
aS'---+'
p4614
aS'-000'
p4615
aS'+--+'
p4616
aS'0--+'
p4617
asS'ot_rotr_24'
p4618
(lp4619
S'+-00'
p4620
aS'--+0'
p4621
aS'+--+'
p4622
aS'0000'
p4623
aS'+0-0'
p4624
aS'+--+'
p4625
aS'0-++'
p4626
aS'+--+'
p4627
aS'+-00'
p4628
aS'--++'
p4629
aS'0000'
p4630
aS'+--+'
p4631
aS'+-00'
p4632
aS'+--+'
p4633
aS'0000'
p4634
aS'+--+'
p4635
aS'+-0+'
p4636
aS'0000'
p4637
aS'+000'
p4638
aS'+--+'
p4639
aS'0-0+'
p4640
aS'+--+'
p4641
aS'0000'
p4642
aS'+--+'
p4643
aS'-000'
p4644
aS'+--+'
p4645
aS'0000'
p4646
aS'-000'
p4647
aS'+--+'
p4648
aS'-000'
p4649
aS'+--+'
p4650
aS'-000'
p4651
aS'+--+'
p4652
aS'0000'
p4653
aS'---+'
p4654
aS'0000'
p4655
aS'-0+0'
p4656
aS'+--+'
p4657
aS'-000'
p4658
aS'+--+'
p4659
aS'-0+0'
p4660
aS'-000'
p4661
aS'+--+'
p4662
aS'--++'
p4663
aS'+--+'
p4664
aS'0000'
p4665
aS'-0+0'
p4666
aS'+--+'
p4667
aS'0-00'
p4668
aS'+--+'
p4669
aS'0000'
p4670
aS'-000'
p4671
aS'+--+'
p4672
aS'0-0+'
p4673
aS'+--+'
p4674
aS'00+0'
p4675
aS'+-0+'
p4676
aS'+--+'
p4677
aS'0000'
p4678
aS'-0+0'
p4679
aS'+--+'
p4680
aS'+-0+'
p4681
aS'0--+'
p4682
aS'+--+'
p4683
aS'+-0+'
p4684
aS'0-0+'
p4685
aS'-0+0'
p4686
aS'+--+'
p4687
aS'0-++'
p4688
aS'+--+'
p4689
aS'0000'
p4690
aS'-0-0'
p4691
asS'ot_rotr_25'
p4692
(lp4693
S'0000'
p4694
aS'+--+'
p4695
aS'+-00'
p4696
aS'+--0'
p4697
aS'+-00'
p4698
aS'-0+0'
p4699
aS'-0-0'
p4700
aS'+--+'
p4701
aS'--++'
p4702
aS'+--+'
p4703
aS'0000'
p4704
aS'-0+0'
p4705
aS'+--+'
p4706
aS'--+0'
p4707
aS'0000'
p4708
aS'+--+'
p4709
aS'+-0+'
p4710
aS'-0+0'
p4711
aS'00+0'
p4712
aS'+--+'
p4713
aS'0000'
p4714
aS'-0+0'
p4715
aS'+--+'
p4716
aS'-000'
p4717
aS'0000'
p4718
aS'+--+'
p4719
aS'-000'
p4720
aS'0000'
p4721
aS'+--+'
p4722
aS'+-0+'
p4723
aS'---+'
p4724
aS'-0+0'
p4725
aS'+--+'
p4726
aS'---+'
p4727
aS'+--+'
p4728
aS'+-0+'
p4729
aS'-000'
p4730
aS'-0+0'
p4731
aS'+--+'
p4732
aS'0-00'
p4733
aS'-0+0'
p4734
aS'+--+'
p4735
aS'--+0'
p4736
aS'-0+0'
p4737
asS'u_r_meets_stationary_h_14'
p4738
(lp4739
S'+-00'
p4740
aS'0000'
p4741
aS'+---'
p4742
aS'--+-'
p4743
aS'-000'
p4744
aS'+-0-'
p4745
aS'+-00'
p4746
aS'--+0'
p4747
aS'+-0-'
p4748
aS'-000'
p4749
aS'--+-'
p4750
aS'+-0-'
p4751
aS'0-00'
p4752
aS'+-0-'
p4753
aS'--+-'
p4754
aS'-000'
p4755
aS'+-+-'
p4756
aS'+-0-'
p4757
aS'---0'
p4758
aS'+-+-'
p4759
aS'+-0-'
p4760
aS'--00'
p4761
aS'-000'
p4762
aS'+-0-'
p4763
aS'--0-'
p4764
aS'-000'
p4765
aS'+-+-'
p4766
aS'--0-'
p4767
aS'--00'
p4768
aS'-000'
p4769
aS'+-+-'
p4770
aS'--0-'
p4771
aS'--00'
p4772
aS'-0-0'
p4773
aS'+-+-'
p4774
aS'--+-'
p4775
aS'-000'
p4776
aS'-0-0'
p4777
aS'+-+-'
p4778
aS'--00'
p4779
aS'0-0-'
p4780
aS'----'
p4781
aS'--0-'
p4782
aS'-000'
p4783
aS'+-0-'
p4784
aS'--0-'
p4785
aS'+-0-'
p4786
aS'-000'
p4787
aS'-0-0'
p4788
aS'+-+-'
p4789
aS'+-0-'
p4790
aS'0-+-'
p4791
aS'0-0-'
p4792
aS'--00'
p4793
aS'+-+-'
p4794
aS'0-+-'
p4795
aS'0-0-'
p4796
aS'-000'
p4797
aS'+-+-'
p4798
aS'0-+-'
p4799
aS'--00'
p4800
aS'+-+-'
p4801
aS'--00'
p4802
aS'-000'
p4803
aS'+-+-'
p4804
aS'0-+-'
p4805
aS'-000'
p4806
aS'-0-0'
p4807
aS'-000'
p4808
aS'+-+-'
p4809
aS'0-+-'
p4810
aS'0-0-'
p4811
aS'--00'
p4812
aS'+-0-'
p4813
aS'--+-'
p4814
aS'0--0'
p4815
aS'-000'
p4816
aS'+-+-'
p4817
aS'+-0-'
p4818
aS'--00'
p4819
aS'0-0-'
p4820
aS'+-+-'
p4821
aS'---0'
p4822
aS'+-+-'
p4823
aS'0-0-'
p4824
aS'0-+-'
p4825
aS'---0'
p4826
aS'+-+-'
p4827
aS'0-00'
p4828
aS'+-0-'
p4829
aS'---0'
p4830
aS'+-+-'
p4831
aS'---0'
p4832
aS'0-0-'
p4833
aS'-000'
p4834
aS'-0-0'
p4835
aS'+-+-'
p4836
aS'--0-'
p4837
aS'0-0-'
p4838
aS'+-+-'
p4839
aS'-0-0'
p4840
aS'+-+-'
p4841
aS'--0-'
p4842
aS'+-+-'
p4843
aS'-0-0'
p4844
aS'+-+-'
p4845
aS'0-0-'
p4846
aS'-0-0'
p4847
aS'+-+-'
p4848
aS'-000'
p4849
aS'0-0-'
p4850
aS'--00'
p4851
aS'-0-0'
p4852
aS'+-+-'
p4853
aS'0-0-'
p4854
aS'--0-'
p4855
aS'----'
p4856
aS'0-0-'
p4857
aS'-0-0'
p4858
aS'-000'
p4859
aS'-0-0'
p4860
aS'+-+-'
p4861
aS'0-0-'
p4862
aS'0-00'
p4863
aS'-0-0'
p4864
aS'-000'
p4865
aS'+-+-'
p4866
aS'0-0-'
p4867
aS'----'
p4868
aS'-0-0'
p4869
aS'+-+-'
p4870
aS'+-0-'
p4871
aS'0-0-'
p4872
aS'-0-0'
p4873
aS'+-+-'
p4874
aS'0-0-'
p4875
aS'+-+-'
p4876
aS'----'
p4877
aS'-0-0'
p4878
aS'+-+-'
p4879
aS'--0-'
p4880
aS'-0-0'
p4881
asS'u_r_meets_stationary_h_15'
p4882
(lp4883
S'+-00'
p4884
aS'-0-0'
p4885
aS'0000'
p4886
aS'+-+-'
p4887
aS'+-0-'
p4888
aS'---0'
p4889
aS'0000'
p4890
aS'+-0-'
p4891
aS'-000'
p4892
aS'+-0-'
p4893
aS'+-00'
p4894
aS'-000'
p4895
aS'+-0-'
p4896
aS'0-0-'
p4897
aS'+-0-'
p4898
aS'----'
p4899
aS'0-00'
p4900
aS'+-0-'
p4901
aS'-000'
p4902
aS'+-0-'
p4903
aS'--00'
p4904
aS'-000'
p4905
aS'+-0-'
p4906
aS'--0-'
p4907
aS'0-0-'
p4908
aS'-000'
p4909
aS'+-+-'
p4910
aS'--0-'
p4911
aS'+-0-'
p4912
aS'-000'
p4913
aS'+-+-'
p4914
aS'0-0-'
p4915
aS'--+-'
p4916
aS'0-00'
p4917
aS'-000'
p4918
aS'+-+-'
p4919
aS'--0-'
p4920
aS'0-0-'
p4921
aS'-000'
p4922
aS'+-+-'
p4923
aS'0-0-'
p4924
aS'-000'
p4925
aS'0-0-'
p4926
aS'-000'
p4927
aS'+-+-'
p4928
aS'0-+-'
p4929
aS'--00'
p4930
aS'+-+-'
p4931
aS'--00'
p4932
aS'0-0-'
p4933
aS'--0-'
p4934
aS'0-0-'
p4935
aS'--00'
p4936
aS'-000'
p4937
aS'+-+-'
p4938
aS'+-0-'
p4939
aS'--0-'
p4940
aS'+-+-'
p4941
aS'-000'
p4942
aS'+-+-'
p4943
aS'-000'
p4944
aS'+-+-'
p4945
aS'0-0-'
p4946
aS'--00'
p4947
aS'-000'
p4948
aS'+-+-'
p4949
aS'+-0-'
p4950
aS'--0-'
p4951
aS'0-0-'
p4952
aS'-0+0'
p4953
aS'+-+-'
p4954
aS'--+-'
p4955
aS'0-+-'
p4956
aS'--00'
p4957
aS'-000'
p4958
aS'+-0-'
p4959
aS'+-+-'
p4960
aS'--00'
p4961
aS'0-+-'
p4962
aS'+-0-'
p4963
aS'--0-'
p4964
aS'-000'
p4965
aS'+-+-'
p4966
aS'--0-'
p4967
aS'--00'
p4968
aS'-000'
p4969
aS'00-0'
p4970
aS'+-+-'
p4971
aS'--0-'
p4972
aS'-0-0'
p4973
aS'-000'
p4974
aS'+-+-'
p4975
aS'0-0-'
p4976
aS'---0'
p4977
aS'+-+-'
p4978
aS'--00'
p4979
aS'0-0-'
p4980
aS'+-0-'
p4981
aS'-000'
p4982
aS'+-+-'
p4983
aS'0-0-'
p4984
aS'--00'
p4985
aS'-0-0'
p4986
aS'-000'
p4987
aS'+-+-'
p4988
aS'0-0-'
p4989
aS'---0'
p4990
aS'+-+-'
p4991
aS'--00'
p4992
aS'0-0-'
p4993
aS'-000'
p4994
aS'+-+-'
p4995
aS'--00'
p4996
aS'0-0-'
p4997
aS'--00'
p4998
aS'-0-0'
p4999
aS'+-+-'
p5000
aS'0-0-'
p5001
aS'--00'
p5002
aS'-000'
p5003
aS'+-+-'
p5004
aS'--0-'
p5005
aS'0-0-'
p5006
aS'-000'
p5007
aS'0-0-'
p5008
aS'----'
p5009
aS'-0-0'
p5010
aS'+-+-'
p5011
aS'0-0-'
p5012
aS'0---'
p5013
aS'--00'
p5014
aS'-0-0'
p5015
aS'+-+-'
p5016
aS'--0-'
p5017
aS'0-0-'
p5018
aS'--0-'
p5019
aS'--00'
p5020
aS'-0-0'
p5021
aS'+-+-'
p5022
aS'--0-'
p5023
aS'-0-0'
p5024
aS'+-+-'
p5025
aS'0-0-'
p5026
aS'-0-0'
p5027
aS'+-+-'
p5028
aS'0-0-'
p5029
aS'+-+-'
p5030
aS'00-0'
p5031
aS'0-0-'
p5032
aS'+-0-'
p5033
aS'-0-0'
p5034
aS'+-+-'
p5035
aS'--0-'
p5036
aS'0-+-'
p5037
aS'0-0-'
p5038
asS'pb_r_29'
p5039
(lp5040
S'--00'
p5041
aS'-000'
p5042
aS'-0+0'
p5043
aS'---+'
p5044
aS'--+0'
p5045
aS'--00'
p5046
aS'--+0'
p5047
aS'-0+0'
p5048
aS'+--+'
p5049
aS'--00'
p5050
aS'--+0'
p5051
aS'-0+0'
p5052
aS'--++'
p5053
aS'--+0'
p5054
aS'--++'
p5055
aS'--+0'
p5056
aS'--++'
p5057
aS'--+0'
p5058
aS'-0+0'
p5059
aS'+-++'
p5060
aS'--++'
p5061
aS'-0+0'
p5062
aS'--++'
p5063
aS'--+0'
p5064
aS'--++'
p5065
aS'-0+0'
p5066
aS'--++'
p5067
aS'--+0'
p5068
aS'-0+0'
p5069
aS'0-++'
p5070
aS'-0+0'
p5071
aS'--++'
p5072
aS'--+0'
p5073
aS'-0+0'
p5074
aS'--++'
p5075
aS'--+0'
p5076
aS'--++'
p5077
aS'-0+0'
p5078
asS'pb_r_28'
p5079
(lp5080
S'--00'
p5081
aS'--+0'
p5082
aS'--++'
p5083
aS'-0+0'
p5084
aS'+--0'
p5085
aS'--00'
p5086
aS'--+0'
p5087
aS'-0+0'
p5088
aS'--++'
p5089
aS'--+0'
p5090
aS'0-++'
p5091
aS'--+0'
p5092
aS'-0+0'
p5093
aS'--++'
p5094
aS'--+0'
p5095
aS'-0+0'
p5096
aS'--++'
p5097
aS'-0+0'
p5098
aS'--++'
p5099
aS'--+0'
p5100
aS'--++'
p5101
aS'-0+0'
p5102
aS'--++'
p5103
aS'--+0'
p5104
aS'-0+0'
p5105
aS'0-++'
p5106
aS'--+0'
p5107
aS'--++'
p5108
aS'-0+0'
p5109
aS'--++'
p5110
asS'pb_r_25'
p5111
(lp5112
S'--+0'
p5113
aS'-0+0'
p5114
aS'+-0+'
p5115
aS'--+0'
p5116
aS'--++'
p5117
aS'--+0'
p5118
aS'-0+0'
p5119
aS'--++'
p5120
aS'--+0'
p5121
aS'--++'
p5122
aS'-0+0'
p5123
aS'--++'
p5124
aS'--+0'
p5125
aS'-0+0'
p5126
aS'--++'
p5127
aS'-0+0'
p5128
aS'--++'
p5129
aS'-0+0'
p5130
aS'--++'
p5131
aS'-0+0'
p5132
aS'--++'
p5133
aS'-0+0'
p5134
aS'0-++'
p5135
aS'--++'
p5136
aS'-0+0'
p5137
aS'--++'
p5138
asS'pb_r_24'
p5139
(lp5140
S'--+0'
p5141
aS'-0+0'
p5142
aS'--+0'
p5143
aS'-0+0'
p5144
aS'--++'
p5145
aS'--+0'
p5146
aS'--++'
p5147
aS'--+0'
p5148
aS'--++'
p5149
aS'--+0'
p5150
aS'-0+0'
p5151
aS'--++'
p5152
aS'--+0'
p5153
aS'-0+0'
p5154
aS'+-++'
p5155
aS'--+0'
p5156
aS'--++'
p5157
aS'--+0'
p5158
aS'-0+0'
p5159
aS'--++'
p5160
aS'--0+'
p5161
aS'--++'
p5162
aS'-0+0'
p5163
aS'---+'
p5164
aS'--++'
p5165
aS'-0-0'
p5166
aS'0-++'
p5167
aS'--++'
p5168
aS'--+0'
p5169
aS'-0+0'
p5170
aS'--++'
p5171
asS'pb_r_27'
p5172
(lp5173
S'--+0'
p5174
aS'-0+0'
p5175
aS'+--+'
p5176
aS'--+0'
p5177
aS'-0+0'
p5178
aS'-000'
p5179
aS'+-++'
p5180
aS'--+0'
p5181
aS'-0+0'
p5182
aS'--++'
p5183
aS'--+0'
p5184
aS'+-+0'
p5185
aS'-0+0'
p5186
aS'0-++'
p5187
aS'--+0'
p5188
aS'-0+0'
p5189
aS'--++'
p5190
aS'--+0'
p5191
aS'--++'
p5192
aS'--+0'
p5193
aS'--0+'
p5194
aS'--+0'
p5195
aS'-0+0'
p5196
aS'--0+'
p5197
aS'--++'
p5198
aS'-0+0'
p5199
aS'--++'
p5200
aS'--+0'
p5201
aS'-000'
p5202
aS'-0+0'
p5203
aS'0-++'
p5204
aS'--++'
p5205
aS'-0+0'
p5206
aS'0-++'
p5207
aS'--++'
p5208
aS'-0+0'
p5209
aS'-0-0'
p5210
asS'pb_r_21'
p5211
(lp5212
S'--+0'
p5213
aS'-0+0'
p5214
aS'---0'
p5215
aS'--00'
p5216
aS'--+0'
p5217
aS'-0+0'
p5218
aS'--++'
p5219
aS'--+0'
p5220
aS'-0+0'
p5221
aS'+--+'
p5222
aS'--+0'
p5223
aS'-0+0'
p5224
aS'0-0+'
p5225
aS'--+0'
p5226
aS'--++'
p5227
aS'--+0'
p5228
aS'-0+0'
p5229
aS'--++'
p5230
aS'-0+0'
p5231
aS'--++'
p5232
aS'-0+0'
p5233
aS'0-++'
p5234
aS'--++'
p5235
aS'--+0'
p5236
aS'-0+0'
p5237
asS'pb_r_20'
p5238
(lp5239
S'--+0'
p5240
aS'-0+0'
p5241
aS'--+0'
p5242
aS'-0+0'
p5243
aS'--++'
p5244
aS'--+0'
p5245
aS'-0+0'
p5246
aS'--++'
p5247
aS'--+0'
p5248
aS'0-++'
p5249
aS'--+0'
p5250
aS'-0+0'
p5251
aS'--++'
p5252
aS'--+0'
p5253
aS'--++'
p5254
aS'-0+0'
p5255
aS'0-++'
p5256
aS'--++'
p5257
aS'-0+0'
p5258
aS'+-++'
p5259
aS'--++'
p5260
aS'--+0'
p5261
aS'+-++'
p5262
aS'--++'
p5263
aS'-0+0'
p5264
aS'--+0'
p5265
aS'-0+0'
p5266
aS'--++'
p5267
aS'-0+0'
p5268
aS'-0-0'
p5269
aS'0-++'
p5270
asS'pb_r_23'
p5271
(lp5272
S'-0+0'
p5273
aS'+-0+'
p5274
aS'--+0'
p5275
aS'-0+0'
p5276
aS'+-++'
p5277
aS'--+0'
p5278
aS'-0+0'
p5279
aS'+-++'
p5280
aS'--+0'
p5281
aS'--++'
p5282
aS'--+0'
p5283
aS'--++'
p5284
aS'--+0'
p5285
aS'--++'
p5286
aS'--+0'
p5287
aS'-0+0'
p5288
aS'0-++'
p5289
aS'--+0'
p5290
aS'--++'
p5291
aS'-0+0'
p5292
aS'--++'
p5293
aS'-0+0'
p5294
aS'--++'
p5295
aS'---+'
p5296
aS'--++'
p5297
aS'--+0'
p5298
aS'--++'
p5299
aS'-0+0'
p5300
aS'--++'
p5301
aS'--+0'
p5302
aS'--++'
p5303
aS'---+'
p5304
aS'--++'
p5305
aS'-000'
p5306
aS'--++'
p5307
aS'-0+0'
p5308
aS'-0-0'
p5309
aS'0-++'
p5310
aS'--++'
p5311
aS'+--+'
p5312
aS'--++'
p5313
aS'-0+0'
p5314
aS'--++'
p5315
asS'pb_r_22'
p5316
(lp5317
S'--+0'
p5318
aS'-0+0'
p5319
aS'+-+0'
p5320
aS'--+0'
p5321
aS'-0+0'
p5322
aS'--+0'
p5323
aS'--++'
p5324
aS'--+0'
p5325
aS'-0+0'
p5326
aS'--++'
p5327
aS'-0+0'
p5328
aS'0-++'
p5329
aS'--++'
p5330
aS'--+0'
p5331
aS'-0+0'
p5332
aS'--++'
p5333
aS'--+0'
p5334
aS'---0'
p5335
aS'--+0'
p5336
aS'+0+0'
p5337
aS'--++'
p5338
aS'--+0'
p5339
aS'0-++'
p5340
aS'---+'
p5341
aS'--++'
p5342
aS'-0+0'
p5343
aS'---+'
p5344
aS'--++'
p5345
aS'-0+0'
p5346
aS'--++'
p5347
aS'---+'
p5348
aS'-0+0'
p5349
asS'u_h_meets_stationary_r_8'
p5350
(lp5351
S'-0-0'
p5352
aS'-000'
p5353
aS'-0-0'
p5354
aS'-0+0'
p5355
aS'-0-0'
p5356
aS'-000'
p5357
aS'-0-0'
p5358
aS'-0+0'
p5359
aS'-0-0'
p5360
aS'00+0'
p5361
aS'-0-0'
p5362
aS'00+0'
p5363
aS'-0-0'
p5364
aS'-000'
p5365
aS'-0-0'
p5366
aS'-0+0'
p5367
asS'u_h_meets_stationary_r_9'
p5368
(lp5369
S'-0-0'
p5370
aS'0000'
p5371
aS'-0-0'
p5372
aS'-000'
p5373
aS'-0-0'
p5374
aS'-000'
p5375
aS'-0-0'
p5376
aS'-0+0'
p5377
aS'-0-0'
p5378
aS'+0+0'
p5379
aS'-0-0'
p5380
aS'-0+0'
p5381
aS'-0-0'
p5382
asS'ot_rotr_31'
p5383
(lp5384
S'+--0'
p5385
aS'0000'
p5386
aS'+--+'
p5387
aS'-0+0'
p5388
aS'-0-0'
p5389
aS'+--+'
p5390
aS'0-++'
p5391
aS'+--+'
p5392
aS'0-00'
p5393
aS'+-0+'
p5394
aS'00+0'
p5395
aS'+--+'
p5396
aS'+-++'
p5397
aS'+--+'
p5398
aS'0--+'
p5399
aS'00+0'
p5400
aS'+--+'
p5401
aS'0--+'
p5402
aS'+--+'
p5403
aS'00+0'
p5404
aS'-0-0'
p5405
aS'+--+'
p5406
aS'+-++'
p5407
aS'+--+'
p5408
aS'---+'
p5409
aS'-0+0'
p5410
aS'-0-0'
p5411
aS'+--+'
p5412
aS'0--+'
p5413
aS'0000'
p5414
aS'+--+'
p5415
aS'+-0+'
p5416
aS'+--+'
p5417
aS'-0-0'
p5418
aS'00+0'
p5419
aS'-000'
p5420
aS'+--+'
p5421
aS'0--+'
p5422
aS'+--+'
p5423
aS'+-++'
p5424
aS'+--+'
p5425
aS'-000'
p5426
aS'+--+'
p5427
aS'0--+'
p5428
aS'+-0+'
p5429
aS'+--+'
p5430
aS'-000'
p5431
aS'+--+'
p5432
aS'---+'
p5433
aS'+-0+'
p5434
aS'+--+'
p5435
aS'-0-0'
p5436
aS'+--+'
p5437
aS'0000'
p5438
aS'+--+'
p5439
aS'-0-0'
p5440
aS'+--+'
p5441
aS'0000'
p5442
aS'0--+'
p5443
aS'+-0+'
p5444
aS'+--+'
p5445
asS'ot_rotr_30'
p5446
(lp5447
S'0000'
p5448
aS'+--+'
p5449
aS'+-0+'
p5450
aS'+-00'
p5451
aS'-0-0'
p5452
aS'+--+'
p5453
aS'-0-0'
p5454
aS'+--+'
p5455
aS'0000'
p5456
aS'+--+'
p5457
aS'0-0+'
p5458
aS'+--+'
p5459
aS'0--+'
p5460
aS'--+0'
p5461
aS'0000'
p5462
aS'+--+'
p5463
aS'0-0+'
p5464
aS'+--+'
p5465
aS'0-00'
p5466
aS'+--+'
p5467
aS'-0+0'
p5468
aS'-000'
p5469
aS'+--+'
p5470
aS'+-0+'
p5471
aS'-000'
p5472
aS'+--+'
p5473
aS'0--+'
p5474
aS'+--+'
p5475
aS'+-0+'
p5476
aS'-000'
p5477
aS'+--+'
p5478
aS'+-0+'
p5479
aS'+--+'
p5480
aS'-000'
p5481
aS'-0+0'
p5482
aS'+--+'
p5483
aS'-0+0'
p5484
aS'-000'
p5485
aS'+--+'
p5486
aS'0-++'
p5487
aS'---+'
p5488
aS'0--+'
p5489
aS'-000'
p5490
aS'+--+'
p5491
asS'ot_rotr_33'
p5492
(lp5493
S'+-0+'
p5494
aS'--++'
p5495
aS'+-0+'
p5496
aS'+--+'
p5497
aS'0-0+'
p5498
aS'-0+0'
p5499
aS'+--+'
p5500
aS'0-00'
p5501
aS'+--+'
p5502
aS'---+'
p5503
aS'-000'
p5504
aS'+--+'
p5505
aS'0-0+'
p5506
aS'---+'
p5507
aS'-000'
p5508
aS'+--+'
p5509
aS'---+'
p5510
aS'0--+'
p5511
aS'-000'
p5512
aS'-0+0'
p5513
aS'+--+'
p5514
aS'0-++'
p5515
aS'0--+'
p5516
aS'+--+'
p5517
aS'--++'
p5518
aS'+--+'
p5519
aS'0--+'
p5520
aS'+--+'
p5521
aS'-0+0'
p5522
aS'+--+'
p5523
aS'+-0+'
p5524
aS'0-++'
p5525
aS'+--+'
p5526
aS'00+0'
p5527
aS'-000'
p5528
aS'+--+'
p5529
aS'0-0+'
p5530
aS'-000'
p5531
aS'0000'
p5532
aS'+--+'
p5533
aS'--0+'
p5534
aS'+--+'
p5535
asS'ot_rotr_32'
p5536
(lp5537
S'+-00'
p5538
aS'0000'
p5539
aS'+--+'
p5540
aS'+-00'
p5541
aS'+--0'
p5542
aS'+-00'
p5543
aS'--++'
p5544
aS'0000'
p5545
aS'+--+'
p5546
aS'+-++'
p5547
aS'0-00'
p5548
aS'+--+'
p5549
aS'-0+0'
p5550
aS'+--+'
p5551
aS'0--0'
p5552
aS'+--+'
p5553
aS'--00'
p5554
aS'+--+'
p5555
aS'---0'
p5556
aS'+--+'
p5557
aS'0000'
p5558
aS'+--+'
p5559
aS'0-0+'
p5560
aS'+--+'
p5561
aS'---+'
p5562
aS'-0+0'
p5563
aS'+--+'
p5564
aS'0--+'
p5565
aS'---+'
p5566
aS'--+0'
p5567
aS'-000'
p5568
aS'+--+'
p5569
aS'0-0+'
p5570
aS'-000'
p5571
aS'+--+'
p5572
aS'0-0+'
p5573
aS'+-0+'
p5574
aS'-0+0'
p5575
aS'+--+'
p5576
aS'+-++'
p5577
aS'+--+'
p5578
aS'+-0+'
p5579
asS'ot_rotr_35'
p5580
(lp5581
S'+--+'
p5582
aS'+-00'
p5583
aS'+--+'
p5584
aS'0000'
p5585
aS'-000'
p5586
aS'+--+'
p5587
aS'--++'
p5588
aS'+--+'
p5589
aS'0000'
p5590
aS'-000'
p5591
aS'0--+'
p5592
aS'+--+'
p5593
aS'0-00'
p5594
aS'0000'
p5595
aS'-0-0'
p5596
aS'+--+'
p5597
aS'---+'
p5598
aS'0--+'
p5599
aS'+--+'
p5600
aS'0--+'
p5601
aS'+--+'
p5602
aS'0-++'
p5603
aS'---+'
p5604
aS'-0+0'
p5605
aS'+--+'
p5606
aS'--++'
p5607
aS'+--+'
p5608
aS'0-++'
p5609
aS'+--+'
p5610
aS'0-++'
p5611
aS'+-0+'
p5612
aS'+--+'
p5613
aS'-0+0'
p5614
aS'+--+'
p5615
aS'+-0+'
p5616
aS'+--+'
p5617
aS'+-0+'
p5618
aS'0-++'
p5619
aS'-0+0'
p5620
aS'-000'
p5621
aS'+--+'
p5622
aS'--0+'
p5623
asS'ot_rotr_34'
p5624
(lp5625
S'+-00'
p5626
aS'+-0+'
p5627
aS'+--+'
p5628
aS'+-00'
p5629
aS'-0+0'
p5630
aS'0000'
p5631
aS'+--+'
p5632
aS'+-0+'
p5633
aS'--0+'
p5634
aS'-000'
p5635
aS'+--+'
p5636
aS'+-0+'
p5637
aS'---+'
p5638
aS'+--+'
p5639
aS'---+'
p5640
aS'0000'
p5641
aS'+--+'
p5642
aS'+-0+'
p5643
aS'---+'
p5644
aS'0000'
p5645
aS'-000'
p5646
aS'+--+'
p5647
aS'-000'
p5648
aS'-0+0'
p5649
aS'+--+'
p5650
aS'0--+'
p5651
aS'+--+'
p5652
aS'0-0+'
p5653
aS'-0+0'
p5654
aS'+--+'
p5655
aS'0-0+'
p5656
aS'00+0'
p5657
aS'+--+'
p5658
aS'+-++'
p5659
asS'pb_l_8'
p5660
(lp5661
S'--+0'
p5662
aS'--++'
p5663
aS'--+0'
p5664
aS'-0+0'
p5665
aS'+-++'
p5666
aS'--+0'
p5667
aS'-0+0'
p5668
aS'--++'
p5669
aS'--+0'
p5670
aS'-0+0'
p5671
aS'--++'
p5672
aS'--+0'
p5673
aS'-0+0'
p5674
aS'--++'
p5675
aS'--+0'
p5676
aS'--++'
p5677
aS'-0+0'
p5678
aS'+-++'
p5679
aS'---+'
p5680
aS'--++'
p5681
aS'-0+0'
p5682
aS'---+'
p5683
aS'--++'
p5684
aS'+-0+'
p5685
aS'--++'
p5686
aS'-0+0'
p5687
aS'0-++'
p5688
aS'--++'
p5689
aS'-0+0'
p5690
aS'--++'
p5691
aS'-0+0'
p5692
aS'--++'
p5693
asS'pb_l_9'
p5694
(lp5695
S'--00'
p5696
aS'-000'
p5697
aS'--++'
p5698
aS'--00'
p5699
aS'-000'
p5700
aS'--++'
p5701
aS'--00'
p5702
aS'-0+0'
p5703
aS'--0+'
p5704
aS'--+0'
p5705
aS'-0+0'
p5706
aS'--++'
p5707
aS'--00'
p5708
aS'--+0'
p5709
aS'-0+0'
p5710
aS'--++'
p5711
aS'--+0'
p5712
aS'-0+0'
p5713
aS'--++'
p5714
aS'--+0'
p5715
aS'-0+0'
p5716
aS'+--+'
p5717
aS'--++'
p5718
aS'-0+0'
p5719
aS'--+0'
p5720
aS'-0+0'
p5721
aS'0-0+'
p5722
aS'--++'
p5723
aS'--+0'
p5724
aS'-0+0'
p5725
aS'0-0+'
p5726
aS'--++'
p5727
aS'-0+0'
p5728
aS'--++'
p5729
aS'0-00'
p5730
aS'-0+0'
p5731
aS'+-0+'
p5732
aS'--++'
p5733
aS'+-++'
p5734
aS'--++'
p5735
aS'-000'
p5736
aS'-0+0'
p5737
aS'--++'
p5738
aS'--0+'
p5739
aS'-0+0'
p5740
aS'--0+'
p5741
aS'--++'
p5742
aS'+-0+'
p5743
aS'--0+'
p5744
aS'--++'
p5745
aS'-0+0'
p5746
aS'--+0'
p5747
aS'-0+0'
p5748
aS'--0+'
p5749
aS'--++'
p5750
aS'-0+0'
p5751
aS'-000'
p5752
aS'-0+0'
p5753
aS'+--+'
p5754
aS'--++'
p5755
aS'---+'
p5756
aS'-0+0'
p5757
aS'--++'
p5758
aS'-0+0'
p5759
asS'pb_l_6'
p5760
(lp5761
S'0-+0'
p5762
aS'--+0'
p5763
aS'--++'
p5764
aS'--+0'
p5765
aS'-0+0'
p5766
aS'+-++'
p5767
aS'--++'
p5768
aS'--+0'
p5769
aS'-0+0'
p5770
aS'+--+'
p5771
aS'--+0'
p5772
aS'--00'
p5773
aS'--++'
p5774
aS'-0+0'
p5775
aS'+-0+'
p5776
aS'--+0'
p5777
aS'-0+0'
p5778
aS'--++'
p5779
aS'--+0'
p5780
aS'-0+0'
p5781
aS'+-++'
p5782
aS'--+0'
p5783
aS'--++'
p5784
aS'--+0'
p5785
aS'--++'
p5786
aS'--+0'
p5787
aS'--++'
p5788
aS'-0+0'
p5789
aS'+--+'
p5790
aS'--++'
p5791
aS'--+0'
p5792
aS'-0+0'
p5793
aS'--++'
p5794
aS'--00'
p5795
aS'+-0+'
p5796
aS'--+0'
p5797
aS'--++'
p5798
aS'--+0'
p5799
aS'-0+0'
p5800
aS'+-0+'
p5801
aS'--+0'
p5802
aS'--++'
p5803
aS'+0+0'
p5804
aS'--++'
p5805
aS'-0+0'
p5806
aS'--++'
p5807
aS'-0+0'
p5808
aS'+-++'
p5809
aS'--++'
p5810
aS'-0+0'
p5811
aS'+-++'
p5812
aS'--++'
p5813
aS'-0+0'
p5814
aS'+-0+'
p5815
aS'--++'
p5816
aS'-0+0'
p5817
asS'pb_l_7'
p5818
(lp5819
S'-000'
p5820
aS'--+0'
p5821
aS'-0+0'
p5822
aS'--++'
p5823
aS'--00'
p5824
aS'-0+0'
p5825
aS'--++'
p5826
aS'--00'
p5827
aS'--+0'
p5828
aS'-0+0'
p5829
aS'--++'
p5830
aS'-0+0'
p5831
aS'--++'
p5832
aS'--+0'
p5833
aS'-0+0'
p5834
aS'--++'
p5835
aS'--+0'
p5836
aS'-0+0'
p5837
aS'--++'
p5838
aS'+-+0'
p5839
aS'--+0'
p5840
aS'--++'
p5841
aS'--+0'
p5842
aS'-0+0'
p5843
aS'0-0+'
p5844
aS'--++'
p5845
aS'0-+0'
p5846
aS'--++'
p5847
aS'-0+0'
p5848
aS'+--+'
p5849
aS'--+0'
p5850
aS'--++'
p5851
aS'--+0'
p5852
aS'-0+0'
p5853
aS'+--+'
p5854
aS'--++'
p5855
aS'-0+0'
p5856
aS'-0-0'
p5857
aS'+--+'
p5858
aS'--++'
p5859
aS'-0+0'
p5860
aS'0-0+'
p5861
aS'--++'
p5862
aS'---0'
p5863
aS'-0+0'
p5864
aS'+--+'
p5865
aS'--++'
p5866
aS'-0+0'
p5867
aS'-0-0'
p5868
aS'--++'
p5869
aS'---+'
p5870
aS'--++'
p5871
aS'-0+0'
p5872
aS'+--+'
p5873
aS'--++'
p5874
aS'-0+0'
p5875
asS'ot_rotl_11'
p5876
(lp5877
S'0-+-'
p5878
aS'-0--'
p5879
aS'0000'
p5880
aS'+-+-'
p5881
aS'-0-0'
p5882
aS'0000'
p5883
aS'+-+-'
p5884
aS'0000'
p5885
aS'+-+-'
p5886
aS'0000'
p5887
aS'+-+-'
p5888
aS'0000'
p5889
aS'+-+-'
p5890
aS'+0+-'
p5891
aS'0000'
p5892
aS'-0+0'
p5893
aS'+-+-'
p5894
aS'+0+-'
p5895
aS'-0+0'
p5896
aS'0000'
p5897
aS'+-+-'
p5898
aS'0-0-'
p5899
aS'--+-'
p5900
aS'+-+-'
p5901
aS'0000'
p5902
aS'00-0'
p5903
aS'+-+-'
p5904
aS'00--'
p5905
aS'-000'
p5906
aS'0000'
p5907
aS'+-+-'
p5908
aS'+-0-'
p5909
aS'0-+-'
p5910
aS'+-+-'
p5911
aS'00+-'
p5912
aS'+0--'
p5913
aS'-000'
p5914
aS'+-+-'
p5915
aS'+-0-'
p5916
aS'+-+-'
p5917
aS'-000'
p5918
aS'+-+-'
p5919
aS'-0-0'
p5920
asS'ot_rotl_17'
p5921
(lp5922
S'+-00'
p5923
aS'0000'
p5924
aS'----'
p5925
aS'+-0-'
p5926
aS'--+-'
p5927
aS'+-0-'
p5928
aS'+-+-'
p5929
aS'0---'
p5930
aS'-0+0'
p5931
aS'0000'
p5932
aS'+-+-'
p5933
aS'----'
p5934
aS'+-0-'
p5935
aS'-0+0'
p5936
aS'+-+-'
p5937
aS'--+-'
p5938
aS'0-0-'
p5939
aS'-000'
p5940
aS'+-+-'
p5941
aS'0-+-'
p5942
aS'+-+-'
p5943
aS'0-+-'
p5944
aS'-000'
p5945
aS'+-+-'
p5946
aS'0-0-'
p5947
aS'0-+-'
p5948
aS'--0-'
p5949
aS'-0-0'
p5950
aS'+-+-'
p5951
aS'+---'
p5952
aS'--0-'
p5953
aS'-000'
p5954
aS'+-+-'
p5955
aS'0-0-'
p5956
aS'00-0'
p5957
aS'+-+-'
p5958
aS'+-0-'
p5959
aS'+---'
p5960
aS'-0-0'
p5961
aS'+-+-'
p5962
aS'+-0-'
p5963
aS'-0-0'
p5964
aS'+-+-'
p5965
aS'0-0-'
p5966
asS'ot_rotl_16'
p5967
(lp5968
S'+-00'
p5969
aS'0000'
p5970
aS'+-+-'
p5971
aS'+-00'
p5972
aS'+---'
p5973
aS'+-+-'
p5974
aS'--0-'
p5975
aS'0000'
p5976
aS'-0-0'
p5977
aS'+-+-'
p5978
aS'0000'
p5979
aS'+-0-'
p5980
aS'0000'
p5981
aS'-0-0'
p5982
aS'+-+-'
p5983
aS'0000'
p5984
aS'+-+-'
p5985
aS'0-0-'
p5986
aS'0-00'
p5987
aS'0000'
p5988
aS'-0+0'
p5989
aS'+-+-'
p5990
aS'0-0-'
p5991
aS'-0+0'
p5992
aS'0000'
p5993
aS'+-+-'
p5994
aS'0-+-'
p5995
aS'0000'
p5996
aS'+-+-'
p5997
aS'00-0'
p5998
aS'+-+-'
p5999
aS'--0-'
p6000
aS'+-0-'
p6001
aS'0000'
p6002
aS'+-+-'
p6003
aS'+-0-'
p6004
aS'0000'
p6005
aS'+-+-'
p6006
aS'0-0-'
p6007
aS'0000'
p6008
aS'+-+-'
p6009
aS'-0-0'
p6010
aS'-000'
p6011
aS'+-+-'
p6012
aS'0000'
p6013
aS'-000'
p6014
aS'+-+-'
p6015
aS'0-+-'
p6016
aS'0-0-'
p6017
aS'-000'
p6018
aS'+-+-'
p6019
aS'0-0-'
p6020
aS'-0-0'
p6021
aS'-000'
p6022
aS'+-+-'
p6023
aS'0-0-'
p6024
aS'+-+-'
p6025
aS'0000'
p6026
aS'+-+-'
p6027
aS'-000'
p6028
aS'0000'
p6029
aS'+-+-'
p6030
aS'0000'
p6031
aS'+-+-'
p6032
aS'0-+-'
p6033
aS'0000'
p6034
aS'+-+-'
p6035
aS'--+-'
p6036
aS'+-+-'
p6037
aS'+-0-'
p6038
aS'--0-'
p6039
aS'-000'
p6040
aS'+-+-'
p6041
aS'+-0-'
p6042
aS'+-+-'
p6043
aS'-000'
p6044
asS'pb_r_32'
p6045
(lp6046
S'--+0'
p6047
aS'-0+0'
p6048
aS'--++'
p6049
aS'--+0'
p6050
aS'-0+0'
p6051
aS'+-00'
p6052
aS'--+0'
p6053
aS'-0+0'
p6054
aS'--++'
p6055
aS'--+0'
p6056
aS'--++'
p6057
aS'--+0'
p6058
aS'--++'
p6059
aS'--+0'
p6060
aS'-0+0'
p6061
aS'--++'
p6062
aS'--+0'
p6063
aS'--++'
p6064
aS'--+0'
p6065
aS'-0+0'
p6066
aS'--++'
p6067
aS'--+0'
p6068
aS'---+'
p6069
aS'--++'
p6070
aS'--+0'
p6071
aS'-0+0'
p6072
aS'-0-0'
p6073
aS'--++'
p6074
aS'---+'
p6075
asS'pb_r_33'
p6076
(lp6077
S'--+0'
p6078
aS'--0+'
p6079
aS'--+0'
p6080
aS'-0+0'
p6081
aS'-0-0'
p6082
aS'--++'
p6083
aS'--+0'
p6084
aS'-0+0'
p6085
aS'--++'
p6086
aS'--+0'
p6087
aS'-0+0'
p6088
aS'0-++'
p6089
aS'--++'
p6090
aS'--+0'
p6091
aS'-0+0'
p6092
aS'--++'
p6093
aS'-0+0'
p6094
aS'--+0'
p6095
aS'--++'
p6096
aS'-0+0'
p6097
aS'+-++'
p6098
aS'--++'
p6099
aS'--+0'
p6100
aS'-0+0'
p6101
aS'--0+'
p6102
aS'--++'
p6103
aS'--+0'
p6104
aS'-0+0'
p6105
aS'--++'
p6106
aS'-000'
p6107
aS'-0+0'
p6108
aS'0-++'
p6109
aS'--++'
p6110
aS'--+0'
p6111
aS'--++'
p6112
aS'-0+0'
p6113
aS'--++'
p6114
aS'-0+0'
p6115
aS'--++'
p6116
aS'-0+0'
p6117
aS'--++'
p6118
asS'pb_r_30'
p6119
(lp6120
S'--+0'
p6121
aS'--00'
p6122
aS'-000'
p6123
aS'--+0'
p6124
aS'-0+0'
p6125
aS'--++'
p6126
aS'--+0'
p6127
aS'-0+0'
p6128
aS'--+0'
p6129
aS'-0+0'
p6130
aS'+-++'
p6131
aS'--++'
p6132
aS'-0+0'
p6133
aS'--++'
p6134
aS'-0+0'
p6135
aS'0-++'
p6136
aS'--++'
p6137
aS'-0+0'
p6138
aS'--++'
p6139
aS'-0+0'
p6140
aS'0-++'
p6141
aS'--++'
p6142
aS'-0+0'
p6143
aS'0-++'
p6144
aS'--++'
p6145
asS'pb_r_31'
p6146
(lp6147
S'--+0'
p6148
aS'-0+0'
p6149
aS'--+0'
p6150
aS'-0+0'
p6151
aS'--+0'
p6152
aS'-0+0'
p6153
aS'--+0'
p6154
aS'-0+0'
p6155
aS'+-++'
p6156
aS'--+0'
p6157
aS'-0+0'
p6158
aS'0-++'
p6159
aS'-0+0'
p6160
aS'--+0'
p6161
aS'-0+0'
p6162
aS'+-0+'
p6163
aS'--++'
p6164
aS'-0+0'
p6165
aS'--++'
p6166
aS'---+'
p6167
aS'--+0'
p6168
aS'-0+0'
p6169
aS'--++'
p6170
aS'-0+0'
p6171
aS'--++'
p6172
aS'-0+0'
p6173
aS'---+'
p6174
aS'--++'
p6175
aS'-0+0'
p6176
asS'pb_r_34'
p6177
(lp6178
S'--00'
p6179
aS'--+0'
p6180
aS'-0+0'
p6181
aS'--+0'
p6182
aS'+-+0'
p6183
aS'--+0'
p6184
aS'+-+0'
p6185
aS'-0+0'
p6186
aS'--+0'
p6187
aS'-0+0'
p6188
aS'+-++'
p6189
aS'--+0'
p6190
aS'-0+0'
p6191
aS'0-++'
p6192
aS'--+0'
p6193
aS'-0+0'
p6194
aS'0-++'
p6195
aS'--+0'
p6196
aS'-0+0'
p6197
aS'--++'
p6198
aS'--+0'
p6199
aS'-000'
p6200
aS'-0+0'
p6201
aS'+-++'
p6202
aS'--+0'
p6203
aS'-0+0'
p6204
aS'0-++'
p6205
aS'--++'
p6206
aS'---+'
p6207
aS'-0+0'
p6208
aS'--0+'
p6209
aS'--++'
p6210
aS'--+0'
p6211
aS'-0+0'
p6212
aS'---+'
p6213
aS'--+0'
p6214
aS'--++'
p6215
aS'-0+0'
p6216
aS'0-++'
p6217
aS'--++'
p6218
asS'pb_r_35'
p6219
(lp6220
S'-0+0'
p6221
aS'--+0'
p6222
aS'-0+0'
p6223
aS'--+0'
p6224
aS'-0+0'
p6225
aS'--+0'
p6226
aS'-0+0'
p6227
aS'--++'
p6228
aS'-0+0'
p6229
aS'--++'
p6230
aS'--+0'
p6231
aS'--++'
p6232
aS'-0+0'
p6233
aS'+-++'
p6234
aS'--++'
p6235
aS'--00'
p6236
aS'-0+0'
p6237
aS'+-++'
p6238
aS'--+0'
p6239
aS'0-00'
p6240
aS'-0+0'
p6241
aS'+-++'
p6242
aS'--++'
p6243
aS'+--+'
p6244
aS'-0+0'
p6245
aS'--++'
p6246
aS'-0+0'
p6247
aS'--++'
p6248
aS'--+0'
p6249
aS'-0+0'
p6250
aS'+-0+'
p6251
aS'--++'
p6252
aS'--+0'
p6253
aS'-0+0'
p6254
aS'-000'
p6255
aS'-0+0'
p6256
aS'+-0+'
p6257
aS'--++'
p6258
as.