(dp0
S'ul'
p1
(lp2
(lp3
S'-,-,-,+'
p4
aa(lp5
g4
aS'0,-,+,+'
p6
aa(lp7
g4
ag6
aS'+,-,+,+'
p8
aa(lp9
g4
ag6
ag8
aS'-,-,0,+'
p10
aa(lp11
g4
ag6
ag8
ag10
aS'+,-,-,+'
p12
aa(lp13
g4
ag6
ag8
ag10
ag12
aS'0,-,0,+'
p14
aa(lp15
g4
ag6
ag8
ag10
ag12
ag14
aS'-,-,-,+'
p16
aa(lp17
g4
ag6
ag8
ag10
ag12
ag14
ag16
aS'+,-,0,+'
p18
aa(lp19
g4
ag6
ag8
ag10
ag12
ag14
ag16
ag18
aS'-,-,+,+'
p20
aa(lp21
g4
ag6
ag8
ag10
ag12
ag14
ag16
ag18
ag20
aS'+,-,-,+'
p22
aa(lp23
g4
ag6
ag8
ag10
ag12
ag14
ag16
ag18
ag20
ag22
aS'0,-,0,+'
p24
aa(lp25
g4
ag6
ag8
ag10
ag12
ag14
ag16
ag18
ag20
ag22
ag24
aS'-,-,+,+'
p26
aa(lp27
g4
ag6
ag8
ag10
ag12
ag14
ag16
ag18
ag20
ag22
ag24
ag26
aS'+,-,-,+'
p28
aa(lp29
g4
ag6
ag8
ag10
ag12
ag14
ag16
ag18
ag20
ag22
ag24
ag26
ag28
aS'0,-,-,+'
p30
aa(lp31
g4
ag6
ag8
ag10
ag12
ag14
ag16
ag18
ag20
ag22
ag24
ag26
ag28
ag30
aS'0,-,+,+'
p32
aa(lp33
S'-,-,-,+'
p34
aa(lp35
g34
aS'+,-,+,+'
p36
aa(lp37
g34
ag36
aS'-,-,-,+'
p38
aa(lp39
g34
ag36
ag38
aS'+,-,0,+'
p40
aa(lp41
g34
ag36
ag38
ag40
aS'+,-,+,+'
p42
aa(lp43
g34
ag36
ag38
ag40
ag42
aS'-,-,-,+'
p44
aa(lp45
g34
ag36
ag38
ag40
ag42
ag44
aS'-,-,0,+'
p46
aa(lp47
g34
ag36
ag38
ag40
ag42
ag44
ag46
aS'0,-,-,+'
p48
aa(lp49
g34
ag36
ag38
ag40
ag42
ag44
ag46
ag48
aS'+,-,-,+'
p50
aa(lp51
g34
ag36
ag38
ag40
ag42
ag44
ag46
ag48
ag50
aS'0,-,-,+'
p52
aa(lp53
g34
ag36
ag38
ag40
ag42
ag44
ag46
ag48
ag50
ag52
aS'-,-,+,+'
p54
aa(lp55
g34
ag36
ag38
ag40
ag42
ag44
ag46
ag48
ag50
ag52
ag54
aS'-,+,-,+'
p56
aa(lp57
g34
ag36
ag38
ag40
ag42
ag44
ag46
ag48
ag50
ag52
ag54
ag56
aS'+,-,0,+'
p58
aa(lp59
g34
ag36
ag38
ag40
ag42
ag44
ag46
ag48
ag50
ag52
ag54
ag56
ag58
aS'0,-,+,+'
p60
aa(lp61
g34
ag36
ag38
ag40
ag42
ag44
ag46
ag48
ag50
ag52
ag54
ag56
ag58
ag60
aS'0,-,-,+'
p62
aa(lp63
g34
ag36
ag38
ag40
ag42
ag44
ag46
ag48
ag50
ag52
ag54
ag56
ag58
ag60
ag62
aS'+,-,-,+'
p64
aa(lp65
g34
ag36
ag38
ag40
ag42
ag44
ag46
ag48
ag50
ag52
ag54
ag56
ag58
ag60
ag62
ag64
aS'0,-,0,+'
p66
aa(lp67
g34
ag36
ag38
ag40
ag42
ag44
ag46
ag48
ag50
ag52
ag54
ag56
ag58
ag60
ag62
ag64
ag66
aS'0,-,-,+'
p68
aa(lp69
g34
ag36
ag38
ag40
ag42
ag44
ag46
ag48
ag50
ag52
ag54
ag56
ag58
ag60
ag62
ag64
ag66
ag68
aS'0,-,0,+'
p70
aa(lp71
g34
ag36
ag38
ag40
ag42
ag44
ag46
ag48
ag50
ag52
ag54
ag56
ag58
ag60
ag62
ag64
ag66
ag68
ag70
aS'0,-,+,+'
p72
aa(lp73
g34
ag36
ag38
ag40
ag42
ag44
ag46
ag48
ag50
ag52
ag54
ag56
ag58
ag60
ag62
ag64
ag66
ag68
ag70
ag72
aS'0,-,0,+'
p74
aa(lp75
g34
ag36
ag38
ag40
ag42
ag44
ag46
ag48
ag50
ag52
ag54
ag56
ag58
ag60
ag62
ag64
ag66
ag68
ag70
ag72
ag74
aS'0,-,+,+'
p76
aa(lp77
g34
ag36
ag38
ag40
ag42
ag44
ag46
ag48
ag50
ag52
ag54
ag56
ag58
ag60
ag62
ag64
ag66
ag68
ag70
ag72
ag74
ag76
aS'-,0,+,+'
p78
aa(lp79
g34
ag36
ag38
ag40
ag42
ag44
ag46
ag48
ag50
ag52
ag54
ag56
ag58
ag60
ag62
ag64
ag66
ag68
ag70
ag72
ag74
ag76
ag78
aS'-,0,+,0'
p80
aa(lp81
g34
ag36
ag38
ag40
ag42
ag44
ag46
ag48
ag50
ag52
ag54
ag56
ag58
ag60
ag62
ag64
ag66
ag68
ag70
ag72
ag74
ag76
ag78
ag80
aS'-,0,-,0'
p82
aa(lp83
g34
ag36
ag38
ag40
ag42
ag44
ag46
ag48
ag50
ag52
ag54
ag56
ag58
ag60
ag62
ag64
ag66
ag68
ag70
ag72
ag74
ag76
ag78
ag80
ag82
aS'-,0,+,0'
p84
aa(lp85
S'0,-,-,+'
p86
aa(lp87
g86
aS'+,-,0,+'
p88
aa(lp89
g86
ag88
aS'+,-,+,+'
p90
aa(lp91
g86
ag88
ag90
aS'0,-,0,+'
p92
aa(lp93
g86
ag88
ag90
ag92
aS'+,-,-,+'
p94
aa(lp95
g86
ag88
ag90
ag92
ag94
aS'-,-,0,+'
p96
aa(lp97
g86
ag88
ag90
ag92
ag94
ag96
aS'0,-,0,+'
p98
aa(lp99
g86
ag88
ag90
ag92
ag94
ag96
ag98
aS'0,-,-,+'
p100
aa(lp101
g86
ag88
ag90
ag92
ag94
ag96
ag98
ag100
aS'0,-,0,+'
p102
aa(lp103
g86
ag88
ag90
ag92
ag94
ag96
ag98
ag100
ag102
aS'+,-,0,+'
p104
aa(lp105
g86
ag88
ag90
ag92
ag94
ag96
ag98
ag100
ag102
ag104
aS'0,-,0,+'
p106
aa(lp107
g86
ag88
ag90
ag92
ag94
ag96
ag98
ag100
ag102
ag104
ag106
aS'0,-,-,+'
p108
aa(lp109
g86
ag88
ag90
ag92
ag94
ag96
ag98
ag100
ag102
ag104
ag106
ag108
aS'+,-,0,+'
p110
aa(lp111
g86
ag88
ag90
ag92
ag94
ag96
ag98
ag100
ag102
ag104
ag106
ag108
ag110
aS'+,-,-,+'
p112
aa(lp113
g86
ag88
ag90
ag92
ag94
ag96
ag98
ag100
ag102
ag104
ag106
ag108
ag110
ag112
aS'+,-,+,+'
p114
aa(lp115
g86
ag88
ag90
ag92
ag94
ag96
ag98
ag100
ag102
ag104
ag106
ag108
ag110
ag112
ag114
aS'-,-,-,+'
p116
aa(lp117
g86
ag88
ag90
ag92
ag94
ag96
ag98
ag100
ag102
ag104
ag106
ag108
ag110
ag112
ag114
ag116
aS'0,-,+,+'
p118
aa(lp119
g86
ag88
ag90
ag92
ag94
ag96
ag98
ag100
ag102
ag104
ag106
ag108
ag110
ag112
ag114
ag116
ag118
aS'+,-,+,+'
p120
aa(lp121
g86
ag88
ag90
ag92
ag94
ag96
ag98
ag100
ag102
ag104
ag106
ag108
ag110
ag112
ag114
ag116
ag118
ag120
aS'-,-,0,+'
p122
aa(lp123
g86
ag88
ag90
ag92
ag94
ag96
ag98
ag100
ag102
ag104
ag106
ag108
ag110
ag112
ag114
ag116
ag118
ag120
ag122
aS'-,-,-,+'
p124
aa(lp125
g86
ag88
ag90
ag92
ag94
ag96
ag98
ag100
ag102
ag104
ag106
ag108
ag110
ag112
ag114
ag116
ag118
ag120
ag122
ag124
aS'0,-,0,+'
p126
aa(lp127
g86
ag88
ag90
ag92
ag94
ag96
ag98
ag100
ag102
ag104
ag106
ag108
ag110
ag112
ag114
ag116
ag118
ag120
ag122
ag124
ag126
aS'0,-,-,+'
p128
aa(lp129
g86
ag88
ag90
ag92
ag94
ag96
ag98
ag100
ag102
ag104
ag106
ag108
ag110
ag112
ag114
ag116
ag118
ag120
ag122
ag124
ag126
ag128
aS'-,-,-,+'
p130
aa(lp131
g86
ag88
ag90
ag92
ag94
ag96
ag98
ag100
ag102
ag104
ag106
ag108
ag110
ag112
ag114
ag116
ag118
ag120
ag122
ag124
ag126
ag128
ag130
aS'0,-,0,+'
p132
aa(lp133
g86
ag88
ag90
ag92
ag94
ag96
ag98
ag100
ag102
ag104
ag106
ag108
ag110
ag112
ag114
ag116
ag118
ag120
ag122
ag124
ag126
ag128
ag130
ag132
aS'0,-,-,+'
p134
aa(lp135
g86
ag88
ag90
ag92
ag94
ag96
ag98
ag100
ag102
ag104
ag106
ag108
ag110
ag112
ag114
ag116
ag118
ag120
ag122
ag124
ag126
ag128
ag130
ag132
ag134
aS'0,0,0,+'
p136
aa(lp137
g86
ag88
ag90
ag92
ag94
ag96
ag98
ag100
ag102
ag104
ag106
ag108
ag110
ag112
ag114
ag116
ag118
ag120
ag122
ag124
ag126
ag128
ag130
ag132
ag134
ag136
aS'-,0,+,+'
p138
aa(lp139
g86
ag88
ag90
ag92
ag94
ag96
ag98
ag100
ag102
ag104
ag106
ag108
ag110
ag112
ag114
ag116
ag118
ag120
ag122
ag124
ag126
ag128
ag130
ag132
ag134
ag136
ag138
aS'0,0,+,+'
p140
aa(lp141
g86
ag88
ag90
ag92
ag94
ag96
ag98
ag100
ag102
ag104
ag106
ag108
ag110
ag112
ag114
ag116
ag118
ag120
ag122
ag124
ag126
ag128
ag130
ag132
ag134
ag136
ag138
ag140
aS'-,0,+,0'
p142
aa(lp143
g86
ag88
ag90
ag92
ag94
ag96
ag98
ag100
ag102
ag104
ag106
ag108
ag110
ag112
ag114
ag116
ag118
ag120
ag122
ag124
ag126
ag128
ag130
ag132
ag134
ag136
ag138
ag140
ag142
aS'0,0,-,0'
p144
aa(lp145
g86
ag88
ag90
ag92
ag94
ag96
ag98
ag100
ag102
ag104
ag106
ag108
ag110
ag112
ag114
ag116
ag118
ag120
ag122
ag124
ag126
ag128
ag130
ag132
ag134
ag136
ag138
ag140
ag142
ag144
aS'0,0,0,0'
p146
aa(lp147
S'-,-,+,+'
p148
aa(lp149
g148
aS'0,-,-,+'
p150
aa(lp151
g148
ag150
aS'-,-,-,+'
p152
aa(lp153
g148
ag150
ag152
aS'+,-,0,+'
p154
aa(lp155
g148
ag150
ag152
ag154
aS'0,-,+,+'
p156
aa(lp157
g148
ag150
ag152
ag154
ag156
aS'0,-,-,+'
p158
aa(lp159
g148
ag150
ag152
ag154
ag156
ag158
aS'0,-,0,+'
p160
aa(lp161
g148
ag150
ag152
ag154
ag156
ag158
ag160
aS'-,-,+,+'
p162
aa(lp163
g148
ag150
ag152
ag154
ag156
ag158
ag160
ag162
aS'0,-,0,+'
p164
aa(lp165
g148
ag150
ag152
ag154
ag156
ag158
ag160
ag162
ag164
aS'0,-,-,+'
p166
aa(lp167
g148
ag150
ag152
ag154
ag156
ag158
ag160
ag162
ag164
ag166
aS'0,-,0,+'
p168
aa(lp169
g148
ag150
ag152
ag154
ag156
ag158
ag160
ag162
ag164
ag166
ag168
aS'0,-,-,+'
p170
aa(lp171
g148
ag150
ag152
ag154
ag156
ag158
ag160
ag162
ag164
ag166
ag168
ag170
aS'-,0,+,+'
p172
aa(lp173
g148
ag150
ag152
ag154
ag156
ag158
ag160
ag162
ag164
ag166
ag168
ag170
ag172
aS'0,0,+,0'
p174
aa(lp175
g148
ag150
ag152
ag154
ag156
ag158
ag160
ag162
ag164
ag166
ag168
ag170
ag172
ag174
aS'0,0,0,0'
p176
aa(lp177
g148
ag150
ag152
ag154
ag156
ag158
ag160
ag162
ag164
ag166
ag168
ag170
ag172
ag174
ag176
aS'0,0,-,0'
p178
aa(lp179
g148
ag150
ag152
ag154
ag156
ag158
ag160
ag162
ag164
ag166
ag168
ag170
ag172
ag174
ag176
ag178
aS'0,0,0,0'
p180
aa(lp181
S'-,+,-,+'
p182
aa(lp183
g182
aS'-,-,+,+'
p184
aa(lp185
g182
ag184
aS'0,-,0,+'
p186
aa(lp187
g182
ag184
ag186
aS'0,-,-,+'
p188
aa(lp189
g182
ag184
ag186
ag188
aS'+,-,-,+'
p190
aa(lp191
g182
ag184
ag186
ag188
ag190
aS'+,-,0,+'
p192
aa(lp193
g182
ag184
ag186
ag188
ag190
ag192
aS'0,-,0,+'
p194
aa(lp195
g182
ag184
ag186
ag188
ag190
ag192
ag194
aS'0,-,+,+'
p196
aa(lp197
g182
ag184
ag186
ag188
ag190
ag192
ag194
ag196
aS'-,0,+,0'
p198
aa(lp199
g182
ag184
ag186
ag188
ag190
ag192
ag194
ag196
ag198
aS'+,0,-,0'
p200
aa(lp201
S'-,-,-,+'
p202
aa(lp203
g202
aS'+,-,+,+'
p204
aa(lp205
g202
ag204
aS'+,-,0,+'
p206
aa(lp207
g202
ag204
ag206
aS'0,-,+,+'
p208
aa(lp209
g202
ag204
ag206
ag208
aS'-,-,-,+'
p210
aa(lp211
g202
ag204
ag206
ag208
ag210
aS'+,-,0,+'
p212
aa(lp213
g202
ag204
ag206
ag208
ag210
ag212
aS'+,-,+,+'
p214
aa(lp215
g202
ag204
ag206
ag208
ag210
ag212
ag214
aS'0,-,0,+'
p216
aa(lp217
g202
ag204
ag206
ag208
ag210
ag212
ag214
ag216
aS'+,-,-,+'
p218
aa(lp219
g202
ag204
ag206
ag208
ag210
ag212
ag214
ag216
ag218
aS'+,-,0,+'
p220
aa(lp221
g202
ag204
ag206
ag208
ag210
ag212
ag214
ag216
ag218
ag220
aS'0,-,0,+'
p222
aa(lp223
g202
ag204
ag206
ag208
ag210
ag212
ag214
ag216
ag218
ag220
ag222
aS'+,-,-,+'
p224
aa(lp225
g202
ag204
ag206
ag208
ag210
ag212
ag214
ag216
ag218
ag220
ag222
ag224
aS'-,-,0,+'
p226
aa(lp227
g202
ag204
ag206
ag208
ag210
ag212
ag214
ag216
ag218
ag220
ag222
ag224
ag226
aS'0,-,0,+'
p228
aa(lp229
g202
ag204
ag206
ag208
ag210
ag212
ag214
ag216
ag218
ag220
ag222
ag224
ag226
ag228
aS'-,-,0,+'
p230
aa(lp231
g202
ag204
ag206
ag208
ag210
ag212
ag214
ag216
ag218
ag220
ag222
ag224
ag226
ag228
ag230
aS'0,-,0,+'
p232
aa(lp233
g202
ag204
ag206
ag208
ag210
ag212
ag214
ag216
ag218
ag220
ag222
ag224
ag226
ag228
ag230
ag232
aS'-,-,+,+'
p234
aa(lp235
g202
ag204
ag206
ag208
ag210
ag212
ag214
ag216
ag218
ag220
ag222
ag224
ag226
ag228
ag230
ag232
ag234
aS'+,-,-,+'
p236
aa(lp237
g202
ag204
ag206
ag208
ag210
ag212
ag214
ag216
ag218
ag220
ag222
ag224
ag226
ag228
ag230
ag232
ag234
ag236
aS'0,-,+,+'
p238
aa(lp239
g202
ag204
ag206
ag208
ag210
ag212
ag214
ag216
ag218
ag220
ag222
ag224
ag226
ag228
ag230
ag232
ag234
ag236
ag238
aS'+,-,-,+'
p240
aa(lp241
g202
ag204
ag206
ag208
ag210
ag212
ag214
ag216
ag218
ag220
ag222
ag224
ag226
ag228
ag230
ag232
ag234
ag236
ag238
ag240
aS'0,-,-,+'
p242
aa(lp243
g202
ag204
ag206
ag208
ag210
ag212
ag214
ag216
ag218
ag220
ag222
ag224
ag226
ag228
ag230
ag232
ag234
ag236
ag238
ag240
ag242
aS'-,0,+,0'
p244
aa(lp245
g202
ag204
ag206
ag208
ag210
ag212
ag214
ag216
ag218
ag220
ag222
ag224
ag226
ag228
ag230
ag232
ag234
ag236
ag238
ag240
ag242
ag244
aS'0,0,0,0'
p246
aa(lp247
g202
ag204
ag206
ag208
ag210
ag212
ag214
ag216
ag218
ag220
ag222
ag224
ag226
ag228
ag230
ag232
ag234
ag236
ag238
ag240
ag242
ag244
ag246
aS'0,0,+,0'
p248
aa(lp249
g202
ag204
ag206
ag208
ag210
ag212
ag214
ag216
ag218
ag220
ag222
ag224
ag226
ag228
ag230
ag232
ag234
ag236
ag238
ag240
ag242
ag244
ag246
ag248
aS'0,0,-,0'
p250
aa(lp251
g202
ag204
ag206
ag208
ag210
ag212
ag214
ag216
ag218
ag220
ag222
ag224
ag226
ag228
ag230
ag232
ag234
ag236
ag238
ag240
ag242
ag244
ag246
ag248
ag250
aS'+,0,-,0'
p252
aa(lp253
g202
ag204
ag206
ag208
ag210
ag212
ag214
ag216
ag218
ag220
ag222
ag224
ag226
ag228
ag230
ag232
ag234
ag236
ag238
ag240
ag242
ag244
ag246
ag248
ag250
ag252
aS'0,0,-,0'
p254
aa(lp255
g202
ag204
ag206
ag208
ag210
ag212
ag214
ag216
ag218
ag220
ag222
ag224
ag226
ag228
ag230
ag232
ag234
ag236
ag238
ag240
ag242
ag244
ag246
ag248
ag250
ag252
ag254
aS'0,0,0,0'
p256
aa(lp257
S'+,-,-,+'
p258
aa(lp259
g258
aS'+,-,+,+'
p260
aa(lp261
g258
ag260
aS'-,-,+,+'
p262
aa(lp263
g258
ag260
ag262
aS'-,-,0,+'
p264
aa(lp265
g258
ag260
ag262
ag264
aS'-,-,-,+'
p266
aa(lp267
g258
ag260
ag262
ag264
ag266
aS'0,-,-,+'
p268
aa(lp269
g258
ag260
ag262
ag264
ag266
ag268
aS'+,-,-,+'
p270
aa(lp271
g258
ag260
ag262
ag264
ag266
ag268
ag270
aS'+,-,0,+'
p272
aa(lp273
g258
ag260
ag262
ag264
ag266
ag268
ag270
ag272
aS'0,-,0,+'
p274
aa(lp275
g258
ag260
ag262
ag264
ag266
ag268
ag270
ag272
ag274
aS'0,-,-,+'
p276
aa(lp277
g258
ag260
ag262
ag264
ag266
ag268
ag270
ag272
ag274
ag276
aS'+,-,-,+'
p278
aa(lp279
g258
ag260
ag262
ag264
ag266
ag268
ag270
ag272
ag274
ag276
ag278
aS'0,-,0,+'
p280
aa(lp281
g258
ag260
ag262
ag264
ag266
ag268
ag270
ag272
ag274
ag276
ag278
ag280
aS'+,-,-,+'
p282
aa(lp283
g258
ag260
ag262
ag264
ag266
ag268
ag270
ag272
ag274
ag276
ag278
ag280
ag282
aS'-,-,+,+'
p284
aa(lp285
g258
ag260
ag262
ag264
ag266
ag268
ag270
ag272
ag274
ag276
ag278
ag280
ag282
ag284
aS'-,0,+,+'
p286
aa(lp287
g258
ag260
ag262
ag264
ag266
ag268
ag270
ag272
ag274
ag276
ag278
ag280
ag282
ag284
ag286
aS'-,0,+,0'
p288
aa(lp289
g258
ag260
ag262
ag264
ag266
ag268
ag270
ag272
ag274
ag276
ag278
ag280
ag282
ag284
ag286
ag288
aS'0,0,-,0'
p290
aa(lp291
S'+,-,-,+'
p292
aa(lp293
g292
aS'0,-,+,+'
p294
aa(lp295
g292
ag294
aS'0,-,-,+'
p296
aa(lp297
g292
ag294
ag296
aS'-,-,-,+'
p298
aa(lp299
g292
ag294
ag296
ag298
aS'0,-,0,+'
p300
aa(lp301
g292
ag294
ag296
ag298
ag300
aS'-,-,0,+'
p302
aa(lp303
g292
ag294
ag296
ag298
ag300
ag302
aS'-,-,+,+'
p304
aa(lp305
g292
ag294
ag296
ag298
ag300
ag302
ag304
aS'-,-,0,+'
p306
aa(lp307
g292
ag294
ag296
ag298
ag300
ag302
ag304
ag306
aS'0,-,-,+'
p308
aa(lp309
g292
ag294
ag296
ag298
ag300
ag302
ag304
ag306
ag308
aS'0,-,0,+'
p310
aa(lp311
g292
ag294
ag296
ag298
ag300
ag302
ag304
ag306
ag308
ag310
aS'+,-,-,+'
p312
aa(lp313
g292
ag294
ag296
ag298
ag300
ag302
ag304
ag306
ag308
ag310
ag312
aS'-,-,0,+'
p314
aa(lp315
g292
ag294
ag296
ag298
ag300
ag302
ag304
ag306
ag308
ag310
ag312
ag314
aS'+,-,-,+'
p316
aa(lp317
g292
ag294
ag296
ag298
ag300
ag302
ag304
ag306
ag308
ag310
ag312
ag314
ag316
aS'0,-,0,+'
p318
aa(lp319
g292
ag294
ag296
ag298
ag300
ag302
ag304
ag306
ag308
ag310
ag312
ag314
ag316
ag318
aS'+,-,-,+'
p320
aa(lp321
g292
ag294
ag296
ag298
ag300
ag302
ag304
ag306
ag308
ag310
ag312
ag314
ag316
ag318
ag320
aS'-,+,-,+'
p322
aa(lp323
g292
ag294
ag296
ag298
ag300
ag302
ag304
ag306
ag308
ag310
ag312
ag314
ag316
ag318
ag320
ag322
aS'0,-,0,+'
p324
aa(lp325
g292
ag294
ag296
ag298
ag300
ag302
ag304
ag306
ag308
ag310
ag312
ag314
ag316
ag318
ag320
ag322
ag324
aS'-,0,-,+'
p326
aa(lp327
g292
ag294
ag296
ag298
ag300
ag302
ag304
ag306
ag308
ag310
ag312
ag314
ag316
ag318
ag320
ag322
ag324
ag326
aS'+,-,-,+'
p328
aa(lp329
g292
ag294
ag296
ag298
ag300
ag302
ag304
ag306
ag308
ag310
ag312
ag314
ag316
ag318
ag320
ag322
ag324
ag326
ag328
aS'0,-,-,+'
p330
aa(lp331
g292
ag294
ag296
ag298
ag300
ag302
ag304
ag306
ag308
ag310
ag312
ag314
ag316
ag318
ag320
ag322
ag324
ag326
ag328
ag330
aS'+,-,+,+'
p332
aa(lp333
g292
ag294
ag296
ag298
ag300
ag302
ag304
ag306
ag308
ag310
ag312
ag314
ag316
ag318
ag320
ag322
ag324
ag326
ag328
ag330
ag332
aS'0,0,+,+'
p334
aa(lp335
g292
ag294
ag296
ag298
ag300
ag302
ag304
ag306
ag308
ag310
ag312
ag314
ag316
ag318
ag320
ag322
ag324
ag326
ag328
ag330
ag332
ag334
aS'0,0,+,0'
p336
aa(lp337
g292
ag294
ag296
ag298
ag300
ag302
ag304
ag306
ag308
ag310
ag312
ag314
ag316
ag318
ag320
ag322
ag324
ag326
ag328
ag330
ag332
ag334
ag336
aS'0,0,0,0'
p338
aa(lp339
g292
ag294
ag296
ag298
ag300
ag302
ag304
ag306
ag308
ag310
ag312
ag314
ag316
ag318
ag320
ag322
ag324
ag326
ag328
ag330
ag332
ag334
ag336
ag338
aS'0,0,-,0'
p340
aa(lp341
g292
ag294
ag296
ag298
ag300
ag302
ag304
ag306
ag308
ag310
ag312
ag314
ag316
ag318
ag320
ag322
ag324
ag326
ag328
ag330
ag332
ag334
ag336
ag338
ag340
aS'-,0,-,0'
p342
aa(lp343
S'-,-,-,+'
p344
aa(lp345
g344
aS'-,-,+,+'
p346
aa(lp347
g344
ag346
aS'0,-,-,+'
p348
aa(lp349
g344
ag346
ag348
aS'-,-,+,+'
p350
aa(lp351
g344
ag346
ag348
ag350
aS'0,-,+,+'
p352
aa(lp353
g344
ag346
ag348
ag350
ag352
aS'0,-,0,+'
p354
aa(lp355
g344
ag346
ag348
ag350
ag352
ag354
aS'0,-,+,+'
p356
aa(lp357
g344
ag346
ag348
ag350
ag352
ag354
ag356
aS'-,-,0,+'
p358
aa(lp359
g344
ag346
ag348
ag350
ag352
ag354
ag356
ag358
aS'0,-,0,+'
p360
aa(lp361
g344
ag346
ag348
ag350
ag352
ag354
ag356
ag358
ag360
aS'+,-,-,+'
p362
aa(lp363
g344
ag346
ag348
ag350
ag352
ag354
ag356
ag358
ag360
ag362
aS'0,-,-,+'
p364
aa(lp365
g344
ag346
ag348
ag350
ag352
ag354
ag356
ag358
ag360
ag362
ag364
aS'+,-,0,+'
p366
aa(lp367
g344
ag346
ag348
ag350
ag352
ag354
ag356
ag358
ag360
ag362
ag364
ag366
aS'+,-,-,+'
p368
aa(lp369
g344
ag346
ag348
ag350
ag352
ag354
ag356
ag358
ag360
ag362
ag364
ag366
ag368
aS'-,-,+,+'
p370
aa(lp371
g344
ag346
ag348
ag350
ag352
ag354
ag356
ag358
ag360
ag362
ag364
ag366
ag368
ag370
aS'-,-,-,+'
p372
aa(lp373
g344
ag346
ag348
ag350
ag352
ag354
ag356
ag358
ag360
ag362
ag364
ag366
ag368
ag370
ag372
aS'-,-,0,+'
p374
aa(lp375
g344
ag346
ag348
ag350
ag352
ag354
ag356
ag358
ag360
ag362
ag364
ag366
ag368
ag370
ag372
ag374
aS'-,-,-,+'
p376
aa(lp377
g344
ag346
ag348
ag350
ag352
ag354
ag356
ag358
ag360
ag362
ag364
ag366
ag368
ag370
ag372
ag374
ag376
aS'+,-,-,+'
p378
aa(lp379
g344
ag346
ag348
ag350
ag352
ag354
ag356
ag358
ag360
ag362
ag364
ag366
ag368
ag370
ag372
ag374
ag376
ag378
aS'0,0,+,0'
p380
aa(lp381
g344
ag346
ag348
ag350
ag352
ag354
ag356
ag358
ag360
ag362
ag364
ag366
ag368
ag370
ag372
ag374
ag376
ag378
ag380
aS'0,0,0,0'
p382
aa(lp383
S'+,-,0,+'
p384
aa(lp385
g384
aS'+,-,-,+'
p386
aa(lp387
g384
ag386
aS'0,-,+,+'
p388
aa(lp389
g384
ag386
ag388
aS'-,-,-,+'
p390
aa(lp391
g384
ag386
ag388
ag390
aS'0,-,-,+'
p392
aa(lp393
g384
ag386
ag388
ag390
ag392
aS'+,-,-,+'
p394
aa(lp395
g384
ag386
ag388
ag390
ag392
ag394
aS'+,-,0,+'
p396
aa(lp397
g384
ag386
ag388
ag390
ag392
ag394
ag396
aS'0,-,0,+'
p398
aa(lp399
g384
ag386
ag388
ag390
ag392
ag394
ag396
ag398
aS'0,-,-,+'
p400
aa(lp401
g384
ag386
ag388
ag390
ag392
ag394
ag396
ag398
ag400
aS'+,-,-,+'
p402
aa(lp403
g384
ag386
ag388
ag390
ag392
ag394
ag396
ag398
ag400
ag402
aS'+,-,0,+'
p404
aa(lp405
g384
ag386
ag388
ag390
ag392
ag394
ag396
ag398
ag400
ag402
ag404
aS'0,-,0,+'
p406
aa(lp407
g384
ag386
ag388
ag390
ag392
ag394
ag396
ag398
ag400
ag402
ag404
ag406
aS'-,-,0,+'
p408
aa(lp409
g384
ag386
ag388
ag390
ag392
ag394
ag396
ag398
ag400
ag402
ag404
ag406
ag408
aS'-,-,-,+'
p410
aa(lp411
g384
ag386
ag388
ag390
ag392
ag394
ag396
ag398
ag400
ag402
ag404
ag406
ag408
ag410
aS'0,-,-,+'
p412
aa(lp413
g384
ag386
ag388
ag390
ag392
ag394
ag396
ag398
ag400
ag402
ag404
ag406
ag408
ag410
ag412
aS'0,-,0,+'
p414
aa(lp415
g384
ag386
ag388
ag390
ag392
ag394
ag396
ag398
ag400
ag402
ag404
ag406
ag408
ag410
ag412
ag414
aS'+,-,-,+'
p416
aa(lp417
g384
ag386
ag388
ag390
ag392
ag394
ag396
ag398
ag400
ag402
ag404
ag406
ag408
ag410
ag412
ag414
ag416
aS'0,-,-,+'
p418
aa(lp419
g384
ag386
ag388
ag390
ag392
ag394
ag396
ag398
ag400
ag402
ag404
ag406
ag408
ag410
ag412
ag414
ag416
ag418
aS'+,-,-,+'
p420
aa(lp421
g384
ag386
ag388
ag390
ag392
ag394
ag396
ag398
ag400
ag402
ag404
ag406
ag408
ag410
ag412
ag414
ag416
ag418
ag420
aS'0,0,+,+'
p422
aa(lp423
g384
ag386
ag388
ag390
ag392
ag394
ag396
ag398
ag400
ag402
ag404
ag406
ag408
ag410
ag412
ag414
ag416
ag418
ag420
ag422
aS'0,0,+,0'
p424
aasS'rotl'
p425
(lp426
(lp427
S'+,-,+,-'
p428
aa(lp429
g428
aS'-,-,-,-'
p430
aa(lp431
g428
ag430
aS'+,-,+,-'
p432
aa(lp433
S'+,-,+,-'
p434
aa(lp435
g434
aS'-,-,-,-'
p436
aa(lp437
g434
ag436
aS'-,-,0,-'
p438
aa(lp439
g434
ag436
ag438
aS'-,-,+,-'
p440
aa(lp441
g434
ag436
ag438
ag440
aS'-,-,-,-'
p442
aa(lp443
g434
ag436
ag438
ag440
ag442
aS'-,+,+,+'
p444
aa(lp445
g434
ag436
ag438
ag440
ag442
ag444
aS'+,-,+,-'
p446
aa(lp447
S'+,-,-,-'
p448
aa(lp449
g448
aS'+,-,+,-'
p450
aa(lp451
S'+,-,+,-'
p452
aa(lp453
g452
aS'-,-,-,-'
p454
aa(lp455
g452
ag454
aS'+,-,+,-'
p456
aa(lp457
S'0,-,+,-'
p458
aa(lp459
g458
aS'-,-,-,-'
p460
aa(lp461
g458
ag460
aS'-,-,+,-'
p462
aa(lp463
g458
ag460
ag462
aS'+,+,-,+'
p464
aa(lp465
g458
ag460
ag462
ag464
aS'-,+,+,+'
p466
aa(lp467
g458
ag460
ag462
ag464
ag466
aS'+,-,+,-'
p468
aa(lp469
S'-,-,0,-'
p470
aa(lp471
g470
aS'+,-,+,-'
p472
aa(lp473
g470
ag472
aS'+,-,-,-'
p474
aa(lp475
g470
ag472
ag474
aS'+,-,+,-'
p476
aa(lp477
S'-,-,+,-'
p478
aa(lp479
g478
aS'+,-,+,-'
p480
aa(lp481
S'+,-,+,-'
p482
aa(lp483
g482
aS'-,-,-,-'
p484
aa(lp485
g482
ag484
aS'+,-,+,-'
p486
aa(lp487
g482
ag484
ag486
aS'+,-,-,-'
p488
aa(lp489
S'+,-,+,-'
p490
aa(lp491
g490
aS'+,-,-,-'
p492
aa(lp493
g490
ag492
aS'+,-,+,-'
p494
aa(lp495
S'+,-,+,-'
p496
aa(lp497
g496
aS'-,-,+,-'
p498
aa(lp499
g496
ag498
aS'+,-,-,-'
p500
aa(lp501
g496
ag498
ag500
aS'+,-,+,-'
p502
aasS'pcl'
p503
(lp504
(lp505
S'+,-,-,-'
p506
aa(lp507
S'-,-,+,+'
p508
aa(lp509
g508
aS'-,-,-,+'
p510
aa(lp511
g508
ag510
aS'-,-,-,0'
p512
aa(lp513
g508
ag510
ag512
aS'-,-,-,-'
p514
aa(lp515
g508
ag510
ag512
ag514
aS'+,-,-,-'
p516
aa(lp517
S'-,-,-,+'
p518
aa(lp519
g518
aS'-,-,-,0'
p520
aa(lp521
g518
ag520
aS'+,-,-,-'
p522
aa(lp523
S'-,-,-,+'
p524
aa(lp525
g524
aS'-,-,-,0'
p526
aa(lp527
g524
ag526
aS'-,-,-,-'
p528
aa(lp529
g524
ag526
ag528
aS'+,-,-,-'
p530
aa(lp531
S'-,-,-,+'
p532
aa(lp533
g532
aS'-,-,-,0'
p534
aa(lp535
g532
ag534
aS'-,-,-,-'
p536
aa(lp537
g532
ag534
ag536
aS'0,-,-,-'
p538
aa(lp539
g532
ag534
ag536
ag538
aS'-,-,-,-'
p540
aa(lp541
g532
ag534
ag536
ag538
ag540
aS'+,-,-,-'
p542
aa(lp543
S'-,-,-,+'
p544
aa(lp545
g544
aS'-,-,-,0'
p546
aa(lp547
g544
ag546
aS'-,-,-,-'
p548
aa(lp549
g544
ag546
ag548
aS'+,-,-,-'
p550
aa(lp551
S'-,-,+,+'
p552
aa(lp553
g552
aS'-,-,-,+'
p554
aa(lp555
g552
ag554
aS'-,-,-,0'
p556
aa(lp557
S'-,-,-,+'
p558
aa(lp559
g558
aS'-,-,-,0'
p560
aa(lp561
g558
ag560
aS'-,-,-,-'
p562
aa(lp563
g558
ag560
ag562
aS'+,-,-,-'
p564
aa(lp565
S'-,-,-,+'
p566
aa(lp567
g566
aS'-,-,-,0'
p568
aa(lp569
g566
ag568
aS'-,-,-,-'
p570
aa(lp571
g566
ag568
ag570
aS'+,-,-,-'
p572
aa(lp573
S'-,-,-,+'
p574
aa(lp575
g574
aS'-,-,-,-'
p576
aa(lp577
g574
ag576
aS'+,-,-,-'
p578
aasS'pbr'
p579
(lp580
(lp581
S'-,-,+,+'
p582
aa(lp583
g582
aS'+,+,+,+'
p584
aa(lp585
S'-,-,+,+'
p586
aa(lp587
g586
aS'-,0,+,0'
p588
aa(lp589
g586
ag588
aS'+,0,+,0'
p590
aa(lp591
S'-,-,+,+'
p592
aa(lp593
g592
aS'-,+,+,+'
p594
aa(lp595
S'-,-,+,+'
p596
aa(lp597
S'-,-,+,+'
p598
aa(lp599
S'-,-,+,0'
p600
aa(lp601
g600
aS'-,-,+,+'
p602
aa(lp603
g600
ag602
aS'-,0,+,+'
p604
aa(lp605
g600
ag602
ag604
aS'-,+,+,+'
p606
aa(lp607
S'-,-,+,+'
p608
aa(lp609
g608
aS'-,0,+,+'
p610
aa(lp611
g608
ag610
aS'-,-,+,+'
p612
aa(lp613
S'-,-,+,+'
p614
aa(lp615
S'-,-,+,0'
p616
aa(lp617
g616
aS'-,-,+,+'
p618
aa(lp619
g616
ag618
aS'-,0,+,+'
p620
aa(lp621
S'-,-,+,+'
p622
aasS'pcr'
p623
(lp624
(lp625
S'-,-,+,-'
p626
aa(lp627
g626
aS'+,-,+,0'
p628
aa(lp629
g626
ag628
aS'+,-,+,+'
p630
aa(lp631
S'-,-,+,-'
p632
aa(lp633
g632
aS'0,-,+,-'
p634
aa(lp635
g632
ag634
aS'+,-,+,-'
p636
aa(lp637
g632
ag634
ag636
aS'+,-,+,0'
p638
aa(lp639
g632
ag634
ag636
ag638
aS'+,-,+,+'
p640
aa(lp641
S'-,-,+,-'
p642
aa(lp643
g642
aS'+,-,+,-'
p644
aa(lp645
g642
ag644
aS'+,-,+,0'
p646
aa(lp647
S'-,-,+,-'
p648
aa(lp649
g648
aS'+,-,+,-'
p650
aa(lp651
g648
ag650
aS'+,-,+,0'
p652
aa(lp653
S'-,-,+,-'
p654
aa(lp655
g654
aS'+,-,-,-'
p656
aa(lp657
g654
ag656
aS'-,-,+,-'
p658
aa(lp659
g654
ag656
ag658
aS'+,-,+,-'
p660
aa(lp661
g654
ag656
ag658
ag660
aS'+,-,+,0'
p662
aa(lp663
S'-,-,+,-'
p664
aa(lp665
g664
aS'+,-,+,0'
p666
aa(lp667
S'-,-,+,-'
p668
aa(lp669
g668
aS'+,-,+,-'
p670
aa(lp671
S'+,-,+,-'
p672
aa(lp673
g672
aS'+,-,+,0'
p674
aa(lp675
g672
ag674
aS'+,-,+,+'
p676
aa(lp677
S'+,-,+,-'
p678
aa(lp679
g678
aS'+,-,+,+'
p680
aa(lp681
S'-,-,+,-'
p682
aa(lp683
g682
aS'+,-,+,0'
p684
aasS'pbl'
p685
(lp686
(lp687
S'-,-,-,-'
p688
aa(lp689
S'-,-,-,-'
p690
aa(lp691
S'-,-,-,-'
p692
aa(lp693
g692
aS'+,+,-,-'
p694
aa(lp695
S'-,-,-,-'
p696
aa(lp697
g696
aS'-,0,-,-'
p698
aa(lp699
g696
ag698
aS'+,+,-,-'
p700
aa(lp701
S'-,-,-,-'
p702
aa(lp703
g702
aS'0,+,-,-'
p704
aa(lp705
g702
ag704
aS'+,+,-,-'
p706
aa(lp707
S'-,-,-,-'
p708
aa(lp709
g708
aS'-,-,+,-'
p710
aa(lp711
g708
ag710
aS'-,-,-,-'
p712
aa(lp713
g708
ag710
ag712
aS'+,+,-,-'
p714
aa(lp715
S'-,-,-,-'
p716
aa(lp717
g716
aS'+,+,+,-'
p718
aa(lp719
S'-,-,-,-'
p720
aa(lp721
g720
aS'-,0,-,-'
p722
aa(lp723
g720
ag722
aS'0,+,-,-'
p724
aa(lp725
g720
ag722
ag724
aS'+,+,-,-'
p726
aa(lp727
S'-,-,-,-'
p728
aa(lp729
g728
aS'+,+,-,-'
p730
aa(lp731
S'-,-,+,-'
p732
aa(lp733
g732
aS'-,-,-,-'
p734
aasS'rotr'
p735
(lp736
(lp737
S'+,-,-,+'
p738
aa(lp739
S'+,-,0,+'
p740
aa(lp741
g740
aS'-,-,-,+'
p742
aa(lp743
g740
ag742
aS'+,-,-,+'
p744
aa(lp745
S'+,-,-,+'
p746
aa(lp747
g746
aS'-,-,+,+'
p748
aa(lp749
g746
ag748
aS'+,-,-,+'
p750
aa(lp751
S'+,-,-,+'
p752
aa(lp753
S'0,-,0,+'
p754
aa(lp755
g754
aS'+,-,-,+'
p756
aa(lp757
g754
ag756
aS'+,-,0,+'
p758
aa(lp759
g754
ag756
ag758
aS'0,-,+,+'
p760
aa(lp761
g754
ag756
ag758
ag760
aS'+,-,-,+'
p762
aa(lp763
S'+,-,-,+'
p764
aa(lp765
S'+,-,-,+'
p766
aa(lp767
S'+,-,+,+'
p768
aa(lp769
g768
aS'+,-,-,+'
p770
aa(lp771
g768
ag770
aS'0,-,-,+'
p772
aa(lp773
g768
ag770
ag772
aS'+,-,-,+'
p774
aa(lp775
S'+,-,-,+'
p776
aa(lp777
g776
aS'+,-,0,+'
p778
aa(lp779
S'+,-,-,+'
p780
aa(lp781
g780
aS'+,-,+,+'
p782
aa(lp783
g780
ag782
aS'+,-,-,+'
p784
aasS'ur'
p785
(lp786
(lp787
S'0,-,+,-'
p788
aa(lp789
g788
aS'+,-,-,-'
p790
aa(lp791
g788
ag790
aS'0,0,-,-'
p792
aa(lp793
g788
ag790
ag792
aS'0,0,0,-'
p794
aa(lp795
g788
ag790
ag792
ag794
aS'0,-,0,-'
p796
aa(lp797
g788
ag790
ag792
ag794
ag796
aS'0,0,+,-'
p798
aa(lp799
g788
ag790
ag792
ag794
ag796
ag798
aS'0,0,0,-'
p800
aa(lp801
g788
ag790
ag792
ag794
ag796
ag798
ag800
aS'-,0,-,-'
p802
aa(lp803
g788
ag790
ag792
ag794
ag796
ag798
ag800
ag802
aS'-,+,+,+'
p804
aa(lp805
g788
ag790
ag792
ag794
ag796
ag798
ag800
ag802
ag804
aS'+,+,0,-'
p806
aa(lp807
g788
ag790
ag792
ag794
ag796
ag798
ag800
ag802
ag804
ag806
aS'0,+,+,-'
p808
aa(lp809
g788
ag790
ag792
ag794
ag796
ag798
ag800
ag802
ag804
ag806
ag808
aS'0,+,0,-'
p810
aa(lp811
g788
ag790
ag792
ag794
ag796
ag798
ag800
ag802
ag804
ag806
ag808
ag810
aS'0,+,-,-'
p812
aa(lp813
g788
ag790
ag792
ag794
ag796
ag798
ag800
ag802
ag804
ag806
ag808
ag810
ag812
aS'0,+,0,-'
p814
aa(lp815
g788
ag790
ag792
ag794
ag796
ag798
ag800
ag802
ag804
ag806
ag808
ag810
ag812
ag814
aS'0,+,+,-'
p816
aa(lp817
g788
ag790
ag792
ag794
ag796
ag798
ag800
ag802
ag804
ag806
ag808
ag810
ag812
ag814
ag816
aS'+,+,-,-'
p818
aa(lp819
g788
ag790
ag792
ag794
ag796
ag798
ag800
ag802
ag804
ag806
ag808
ag810
ag812
ag814
ag816
ag818
aS'+,0,-,-'
p820
aa(lp821
g788
ag790
ag792
ag794
ag796
ag798
ag800
ag802
ag804
ag806
ag808
ag810
ag812
ag814
ag816
ag818
ag820
aS'-,0,0,0'
p822
aa(lp823
g788
ag790
ag792
ag794
ag796
ag798
ag800
ag802
ag804
ag806
ag808
ag810
ag812
ag814
ag816
ag818
ag820
ag822
aS'-,0,+,0'
p824
aa(lp825
g788
ag790
ag792
ag794
ag796
ag798
ag800
ag802
ag804
ag806
ag808
ag810
ag812
ag814
ag816
ag818
ag820
ag822
ag824
aS'0,0,+,0'
p826
aa(lp827
g788
ag790
ag792
ag794
ag796
ag798
ag800
ag802
ag804
ag806
ag808
ag810
ag812
ag814
ag816
ag818
ag820
ag822
ag824
ag826
aS'0,0,-,0'
p828
aa(lp829
g788
ag790
ag792
ag794
ag796
ag798
ag800
ag802
ag804
ag806
ag808
ag810
ag812
ag814
ag816
ag818
ag820
ag822
ag824
ag826
ag828
aS'0,0,0,0'
p830
aa(lp831
S'+,-,+,-'
p832
aa(lp833
g832
aS'0,-,-,-'
p834
aa(lp835
g832
ag834
aS'0,-,0,-'
p836
aa(lp837
g832
ag834
ag836
aS'+,-,+,-'
p838
aa(lp839
g832
ag834
ag836
ag838
aS'0,-,+,-'
p840
aa(lp841
g832
ag834
ag836
ag838
ag840
aS'0,-,0,-'
p842
aa(lp843
g832
ag834
ag836
ag838
ag840
ag842
aS'+,-,0,-'
p844
aa(lp845
g832
ag834
ag836
ag838
ag840
ag842
ag844
aS'-,-,-,-'
p846
aa(lp847
g832
ag834
ag836
ag838
ag840
ag842
ag844
ag846
aS'-,-,+,-'
p848
aa(lp849
g832
ag834
ag836
ag838
ag840
ag842
ag844
ag846
ag848
aS'-,+,-,+'
p850
aa(lp851
g832
ag834
ag836
ag838
ag840
ag842
ag844
ag846
ag848
ag850
aS'-,-,-,+'
p852
aa(lp853
g832
ag834
ag836
ag838
ag840
ag842
ag844
ag846
ag848
ag850
ag852
aS'+,-,+,-'
p854
aa(lp855
g832
ag834
ag836
ag838
ag840
ag842
ag844
ag846
ag848
ag850
ag852
ag854
aS'0,-,+,-'
p856
aa(lp857
g832
ag834
ag836
ag838
ag840
ag842
ag844
ag846
ag848
ag850
ag852
ag854
ag856
aS'0,-,0,-'
p858
aa(lp859
g832
ag834
ag836
ag838
ag840
ag842
ag844
ag846
ag848
ag850
ag852
ag854
ag856
ag858
aS'-,-,0,-'
p860
aa(lp861
g832
ag834
ag836
ag838
ag840
ag842
ag844
ag846
ag848
ag850
ag852
ag854
ag856
ag858
ag860
aS'+,-,+,-'
p862
aa(lp863
g832
ag834
ag836
ag838
ag840
ag842
ag844
ag846
ag848
ag850
ag852
ag854
ag856
ag858
ag860
ag862
aS'0,-,+,-'
p864
aa(lp865
g832
ag834
ag836
ag838
ag840
ag842
ag844
ag846
ag848
ag850
ag852
ag854
ag856
ag858
ag860
ag862
ag864
aS'0,-,0,-'
p866
aa(lp867
g832
ag834
ag836
ag838
ag840
ag842
ag844
ag846
ag848
ag850
ag852
ag854
ag856
ag858
ag860
ag862
ag864
ag866
aS'0,0,-,-'
p868
aa(lp869
g832
ag834
ag836
ag838
ag840
ag842
ag844
ag846
ag848
ag850
ag852
ag854
ag856
ag858
ag860
ag862
ag864
ag866
ag868
aS'0,+,+,-'
p870
aa(lp871
g832
ag834
ag836
ag838
ag840
ag842
ag844
ag846
ag848
ag850
ag852
ag854
ag856
ag858
ag860
ag862
ag864
ag866
ag868
ag870
aS'-,+,+,-'
p872
aa(lp873
g832
ag834
ag836
ag838
ag840
ag842
ag844
ag846
ag848
ag850
ag852
ag854
ag856
ag858
ag860
ag862
ag864
ag866
ag868
ag870
ag872
aS'+,+,-,-'
p874
aa(lp875
g832
ag834
ag836
ag838
ag840
ag842
ag844
ag846
ag848
ag850
ag852
ag854
ag856
ag858
ag860
ag862
ag864
ag866
ag868
ag870
ag872
ag874
aS'0,+,+,-'
p876
aa(lp877
g832
ag834
ag836
ag838
ag840
ag842
ag844
ag846
ag848
ag850
ag852
ag854
ag856
ag858
ag860
ag862
ag864
ag866
ag868
ag870
ag872
ag874
ag876
aS'-,+,+,-'
p878
aa(lp879
S'+,-,+,-'
p880
aa(lp881
g880
aS'0,-,+,-'
p882
aa(lp883
g880
ag882
aS'+,-,+,-'
p884
aa(lp885
g880
ag882
ag884
aS'0,-,+,-'
p886
aa(lp887
g880
ag882
ag884
ag886
aS'0,-,0,-'
p888
aa(lp889
g880
ag882
ag884
ag886
ag888
aS'0,0,0,-'
p890
aa(lp891
g880
ag882
ag884
ag886
ag888
ag890
aS'-,0,+,-'
p892
aa(lp893
g880
ag882
ag884
ag886
ag888
ag890
ag892
aS'-,0,-,-'
p894
aa(lp895
g880
ag882
ag884
ag886
ag888
ag890
ag892
ag894
aS'0,0,0,-'
p896
aa(lp897
g880
ag882
ag884
ag886
ag888
ag890
ag892
ag894
ag896
aS'+,0,0,-'
p898
aa(lp899
g880
ag882
ag884
ag886
ag888
ag890
ag892
ag894
ag896
ag898
aS'+,+,-,-'
p900
aa(lp901
g880
ag882
ag884
ag886
ag888
ag890
ag892
ag894
ag896
ag898
ag900
aS'+,+,0,-'
p902
aa(lp903
g880
ag882
ag884
ag886
ag888
ag890
ag892
ag894
ag896
ag898
ag900
ag902
aS'0,+,+,-'
p904
aa(lp905
g880
ag882
ag884
ag886
ag888
ag890
ag892
ag894
ag896
ag898
ag900
ag902
ag904
aS'0,+,-,-'
p906
aa(lp907
g880
ag882
ag884
ag886
ag888
ag890
ag892
ag894
ag896
ag898
ag900
ag902
ag904
ag906
aS'0,+,0,-'
p908
aa(lp909
g880
ag882
ag884
ag886
ag888
ag890
ag892
ag894
ag896
ag898
ag900
ag902
ag904
ag906
ag908
aS'-,+,+,-'
p910
aa(lp911
g880
ag882
ag884
ag886
ag888
ag890
ag892
ag894
ag896
ag898
ag900
ag902
ag904
ag906
ag908
ag910
aS'0,+,+,-'
p912
aa(lp913
g880
ag882
ag884
ag886
ag888
ag890
ag892
ag894
ag896
ag898
ag900
ag902
ag904
ag906
ag908
ag910
ag912
aS'0,+,-,-'
p914
aa(lp915
g880
ag882
ag884
ag886
ag888
ag890
ag892
ag894
ag896
ag898
ag900
ag902
ag904
ag906
ag908
ag910
ag912
ag914
aS'0,0,+,0'
p916
aa(lp917
g880
ag882
ag884
ag886
ag888
ag890
ag892
ag894
ag896
ag898
ag900
ag902
ag904
ag906
ag908
ag910
ag912
ag914
ag916
aS'-,0,+,0'
p918
aa(lp919
S'+,-,-,-'
p920
aa(lp921
g920
aS'-,-,-,-'
p922
aa(lp923
g920
ag922
aS'-,-,0,-'
p924
aa(lp925
g920
ag922
ag924
aS'0,0,0,-'
p926
aa(lp927
g920
ag922
ag924
ag926
aS'-,0,+,-'
p928
aa(lp929
g920
ag922
ag924
ag926
ag928
aS'-,-,-,0'
p930
aa(lp931
g920
ag922
ag924
ag926
ag928
ag930
aS'+,0,0,-'
p932
aa(lp933
g920
ag922
ag924
ag926
ag928
ag930
ag932
aS'-,0,-,-'
p934
aa(lp935
g920
ag922
ag924
ag926
ag928
ag930
ag932
ag934
aS'0,0,0,-'
p936
aa(lp937
g920
ag922
ag924
ag926
ag928
ag930
ag932
ag934
ag936
aS'0,0,+,-'
p938
aa(lp939
g920
ag922
ag924
ag926
ag928
ag930
ag932
ag934
ag936
ag938
aS'0,+,0,-'
p940
aa(lp941
S'-,-,0,-'
p942
aa(lp943
g942
aS'+,-,-,-'
p944
aa(lp945
g942
ag944
aS'-,-,-,-'
p946
aa(lp947
g942
ag944
ag946
aS'0,-,0,-'
p948
aa(lp949
g942
ag944
ag946
ag948
aS'-,-,-,-'
p950
aa(lp951
g942
ag944
ag946
ag948
ag950
aS'+,-,+,-'
p952
aa(lp953
g942
ag944
ag946
ag948
ag950
ag952
aS'+,-,0,-'
p954
aa(lp955
g942
ag944
ag946
ag948
ag950
ag952
ag954
aS'0,-,0,-'
p956
aa(lp957
g942
ag944
ag946
ag948
ag950
ag952
ag954
ag956
aS'0,-,-,-'
p958
aa(lp959
g942
ag944
ag946
ag948
ag950
ag952
ag954
ag956
ag958
aS'0,-,0,-'
p960
aa(lp961
g942
ag944
ag946
ag948
ag950
ag952
ag954
ag956
ag958
ag960
aS'-,-,+,-'
p962
aa(lp963
g942
ag944
ag946
ag948
ag950
ag952
ag954
ag956
ag958
ag960
ag962
aS'+,0,-,-'
p964
aa(lp965
g942
ag944
ag946
ag948
ag950
ag952
ag954
ag956
ag958
ag960
ag962
ag964
aS'0,0,+,-'
p966
aa(lp967
g942
ag944
ag946
ag948
ag950
ag952
ag954
ag956
ag958
ag960
ag962
ag964
ag966
aS'-,0,0,-'
p968
aa(lp969
g942
ag944
ag946
ag948
ag950
ag952
ag954
ag956
ag958
ag960
ag962
ag964
ag966
ag968
aS'-,0,-,-'
p970
aa(lp971
g942
ag944
ag946
ag948
ag950
ag952
ag954
ag956
ag958
ag960
ag962
ag964
ag966
ag968
ag970
aS'+,0,-,0'
p972
aa(lp973
g942
ag944
ag946
ag948
ag950
ag952
ag954
ag956
ag958
ag960
ag962
ag964
ag966
ag968
ag970
ag972
aS'+,0,0,0'
p974
aa(lp975
g942
ag944
ag946
ag948
ag950
ag952
ag954
ag956
ag958
ag960
ag962
ag964
ag966
ag968
ag970
ag972
ag974
aS'-,0,+,0'
p976
aa(lp977
g942
ag944
ag946
ag948
ag950
ag952
ag954
ag956
ag958
ag960
ag962
ag964
ag966
ag968
ag970
ag972
ag974
ag976
aS'-,0,-,0'
p978
aa(lp979
g942
ag944
ag946
ag948
ag950
ag952
ag954
ag956
ag958
ag960
ag962
ag964
ag966
ag968
ag970
ag972
ag974
ag976
ag978
aS'0,0,+,0'
p980
aa(lp981
S'-,-,-,-'
p982
aa(lp983
g982
aS'+,-,+,-'
p984
aa(lp985
g982
ag984
aS'+,-,0,-'
p986
aa(lp987
g982
ag984
ag986
aS'0,-,0,-'
p988
aa(lp989
g982
ag984
ag986
ag988
aS'0,-,+,-'
p990
aa(lp991
g982
ag984
ag986
ag988
ag990
aS'0,-,0,-'
p992
aa(lp993
g982
ag984
ag986
ag988
ag990
ag992
aS'-,-,-,-'
p994
aa(lp995
g982
ag984
ag986
ag988
ag990
ag992
ag994
aS'-,+,-,+'
p996
aa(lp997
g982
ag984
ag986
ag988
ag990
ag992
ag994
ag996
aS'-,+,+,+'
p998
aa(lp999
g982
ag984
ag986
ag988
ag990
ag992
ag994
ag996
ag998
aS'-,0,+,+'
p1000
aa(lp1001
g982
ag984
ag986
ag988
ag990
ag992
ag994
ag996
ag998
ag1000
aS'0,0,0,-'
p1002
aa(lp1003
g982
ag984
ag986
ag988
ag990
ag992
ag994
ag996
ag998
ag1000
ag1002
aS'0,+,0,-'
p1004
aa(lp1005
g982
ag984
ag986
ag988
ag990
ag992
ag994
ag996
ag998
ag1000
ag1002
ag1004
aS'0,+,-,-'
p1006
aa(lp1007
g982
ag984
ag986
ag988
ag990
ag992
ag994
ag996
ag998
ag1000
ag1002
ag1004
ag1006
aS'0,+,0,-'
p1008
aa(lp1009
g982
ag984
ag986
ag988
ag990
ag992
ag994
ag996
ag998
ag1000
ag1002
ag1004
ag1006
ag1008
aS'-,+,+,+'
p1010
aa(lp1011
g982
ag984
ag986
ag988
ag990
ag992
ag994
ag996
ag998
ag1000
ag1002
ag1004
ag1006
ag1008
ag1010
aS'+,0,-,-'
p1012
aa(lp1013
g982
ag984
ag986
ag988
ag990
ag992
ag994
ag996
ag998
ag1000
ag1002
ag1004
ag1006
ag1008
ag1010
ag1012
aS'-,0,+,0'
p1014
aa(lp1015
g982
ag984
ag986
ag988
ag990
ag992
ag994
ag996
ag998
ag1000
ag1002
ag1004
ag1006
ag1008
ag1010
ag1012
ag1014
aS'0,0,-,0'
p1016
aa(lp1017
g982
ag984
ag986
ag988
ag990
ag992
ag994
ag996
ag998
ag1000
ag1002
ag1004
ag1006
ag1008
ag1010
ag1012
ag1014
ag1016
aS'0,0,0,0'
p1018
aa(lp1019
g982
ag984
ag986
ag988
ag990
ag992
ag994
ag996
ag998
ag1000
ag1002
ag1004
ag1006
ag1008
ag1010
ag1012
ag1014
ag1016
ag1018
aS'-,0,+,0'
p1020
aa(lp1021
S'-,-,+,-'
p1022
aa(lp1023
g1022
aS'+,-,-,-'
p1024
aa(lp1025
g1022
ag1024
aS'+,0,+,-'
p1026
aa(lp1027
g1022
ag1024
ag1026
aS'0,0,+,-'
p1028
aa(lp1029
g1022
ag1024
ag1026
ag1028
aS'0,0,0,-'
p1030
aa(lp1031
g1022
ag1024
ag1026
ag1028
ag1030
aS'0,0,+,-'
p1032
aa(lp1033
g1022
ag1024
ag1026
ag1028
ag1030
ag1032
aS'0,0,0,-'
p1034
aa(lp1035
g1022
ag1024
ag1026
ag1028
ag1030
ag1032
ag1034
aS'0,+,0,-'
p1036
aa(lp1037
g1022
ag1024
ag1026
ag1028
ag1030
ag1032
ag1034
ag1036
aS'0,+,+,-'
p1038
aa(lp1039
g1022
ag1024
ag1026
ag1028
ag1030
ag1032
ag1034
ag1036
ag1038
aS'0,+,0,-'
p1040
aa(lp1041
g1022
ag1024
ag1026
ag1028
ag1030
ag1032
ag1034
ag1036
ag1038
ag1040
aS'-,+,+,-'
p1042
aa(lp1043
S'+,-,+,-'
p1044
aa(lp1045
g1044
aS'-,-,-,-'
p1046
aa(lp1047
g1044
ag1046
aS'+,-,+,-'
p1048
aa(lp1049
g1044
ag1046
ag1048
aS'0,-,+,-'
p1050
aa(lp1051
g1044
ag1046
ag1048
ag1050
aS'+,-,+,-'
p1052
aa(lp1053
g1044
ag1046
ag1048
ag1050
ag1052
aS'0,-,0,-'
p1054
aa(lp1055
g1044
ag1046
ag1048
ag1050
ag1052
ag1054
aS'+,-,0,-'
p1056
aa(lp1057
g1044
ag1046
ag1048
ag1050
ag1052
ag1054
ag1056
aS'0,-,0,-'
p1058
aa(lp1059
g1044
ag1046
ag1048
ag1050
ag1052
ag1054
ag1056
ag1058
aS'+,-,0,-'
p1060
aa(lp1061
g1044
ag1046
ag1048
ag1050
ag1052
ag1054
ag1056
ag1058
ag1060
aS'0,-,-,-'
p1062
aa(lp1063
g1044
ag1046
ag1048
ag1050
ag1052
ag1054
ag1056
ag1058
ag1060
ag1062
aS'0,-,0,-'
p1064
aa(lp1065
g1044
ag1046
ag1048
ag1050
ag1052
ag1054
ag1056
ag1058
ag1060
ag1062
ag1064
aS'0,0,0,-'
p1066
aa(lp1067
g1044
ag1046
ag1048
ag1050
ag1052
ag1054
ag1056
ag1058
ag1060
ag1062
ag1064
ag1066
aS'+,0,-,-'
p1068
aa(lp1069
g1044
ag1046
ag1048
ag1050
ag1052
ag1054
ag1056
ag1058
ag1060
ag1062
ag1064
ag1066
ag1068
aS'0,0,-,0'
p1070
aa(lp1071
g1044
ag1046
ag1048
ag1050
ag1052
ag1054
ag1056
ag1058
ag1060
ag1062
ag1064
ag1066
ag1068
ag1070
aS'-,0,-,0'
p1072
aa(lp1073
g1044
ag1046
ag1048
ag1050
ag1052
ag1054
ag1056
ag1058
ag1060
ag1062
ag1064
ag1066
ag1068
ag1070
ag1072
aS'0,0,+,0'
p1074
aa(lp1075
g1044
ag1046
ag1048
ag1050
ag1052
ag1054
ag1056
ag1058
ag1060
ag1062
ag1064
ag1066
ag1068
ag1070
ag1072
ag1074
aS'0,0,0,0'
p1076
aa(lp1077
g1044
ag1046
ag1048
ag1050
ag1052
ag1054
ag1056
ag1058
ag1060
ag1062
ag1064
ag1066
ag1068
ag1070
ag1072
ag1074
ag1076
aS'+,0,-,0'
p1078
aa(lp1079
g1044
ag1046
ag1048
ag1050
ag1052
ag1054
ag1056
ag1058
ag1060
ag1062
ag1064
ag1066
ag1068
ag1070
ag1072
ag1074
ag1076
ag1078
aS'+,0,0,0'
p1080
aa(lp1081
g1044
ag1046
ag1048
ag1050
ag1052
ag1054
ag1056
ag1058
ag1060
ag1062
ag1064
ag1066
ag1068
ag1070
ag1072
ag1074
ag1076
ag1078
ag1080
aS'0,0,0,0'
p1082
aa(lp1083
S'0,-,+,-'
p1084
aa(lp1085
g1084
aS'+,-,+,-'
p1086
aa(lp1087
g1084
ag1086
aS'-,-,-,-'
p1088
aa(lp1089
g1084
ag1086
ag1088
aS'-,-,0,-'
p1090
aa(lp1091
g1084
ag1086
ag1088
ag1090
aS'+,-,-,-'
p1092
aa(lp1093
g1084
ag1086
ag1088
ag1090
ag1092
aS'0,-,-,-'
p1094
aa(lp1095
g1084
ag1086
ag1088
ag1090
ag1092
ag1094
aS'+,-,+,-'
p1096
aa(lp1097
g1084
ag1086
ag1088
ag1090
ag1092
ag1094
ag1096
aS'0,-,0,-'
p1098
aa(lp1099
g1084
ag1086
ag1088
ag1090
ag1092
ag1094
ag1096
ag1098
aS'+,-,+,-'
p1100
aa(lp1101
g1084
ag1086
ag1088
ag1090
ag1092
ag1094
ag1096
ag1098
ag1100
aS'+,-,0,-'
p1102
aa(lp1103
g1084
ag1086
ag1088
ag1090
ag1092
ag1094
ag1096
ag1098
ag1100
ag1102
aS'0,-,0,-'
p1104
aa(lp1105
g1084
ag1086
ag1088
ag1090
ag1092
ag1094
ag1096
ag1098
ag1100
ag1102
ag1104
aS'0,-,-,-'
p1106
aa(lp1107
g1084
ag1086
ag1088
ag1090
ag1092
ag1094
ag1096
ag1098
ag1100
ag1102
ag1104
ag1106
aS'+,-,+,-'
p1108
aa(lp1109
g1084
ag1086
ag1088
ag1090
ag1092
ag1094
ag1096
ag1098
ag1100
ag1102
ag1104
ag1106
ag1108
aS'0,-,+,-'
p1110
aa(lp1111
g1084
ag1086
ag1088
ag1090
ag1092
ag1094
ag1096
ag1098
ag1100
ag1102
ag1104
ag1106
ag1108
ag1110
aS'0,0,0,-'
p1112
aa(lp1113
g1084
ag1086
ag1088
ag1090
ag1092
ag1094
ag1096
ag1098
ag1100
ag1102
ag1104
ag1106
ag1108
ag1110
ag1112
aS'+,0,-,0'
p1114
aa(lp1115
g1084
ag1086
ag1088
ag1090
ag1092
ag1094
ag1096
ag1098
ag1100
ag1102
ag1104
ag1106
ag1108
ag1110
ag1112
ag1114
aS'-,0,-,0'
p1116
aa(lp1117
g1084
ag1086
ag1088
ag1090
ag1092
ag1094
ag1096
ag1098
ag1100
ag1102
ag1104
ag1106
ag1108
ag1110
ag1112
ag1114
ag1116
aS'-,0,0,0'
p1118
aa(lp1119
g1084
ag1086
ag1088
ag1090
ag1092
ag1094
ag1096
ag1098
ag1100
ag1102
ag1104
ag1106
ag1108
ag1110
ag1112
ag1114
ag1116
ag1118
aS'-,0,+,0'
p1120
aa(lp1121
S'-,-,+,-'
p1122
aa(lp1123
g1122
aS'+,-,-,-'
p1124
aa(lp1125
g1122
ag1124
aS'+,-,+,-'
p1126
aa(lp1127
g1122
ag1124
ag1126
aS'-,-,+,-'
p1128
aa(lp1129
g1122
ag1124
ag1126
ag1128
aS'-,+,-,+'
p1130
aa(lp1131
g1122
ag1124
ag1126
ag1128
ag1130
aS'-,-,-,+'
p1132
aa(lp1133
g1122
ag1124
ag1126
ag1128
ag1130
ag1132
aS'+,-,-,-'
p1134
aa(lp1135
g1122
ag1124
ag1126
ag1128
ag1130
ag1132
ag1134
aS'-,0,0,-'
p1136
aa(lp1137
g1122
ag1124
ag1126
ag1128
ag1130
ag1132
ag1134
ag1136
aS'-,0,+,-'
p1138
aa(lp1139
g1122
ag1124
ag1126
ag1128
ag1130
ag1132
ag1134
ag1136
ag1138
aS'0,0,0,-'
p1140
aa(lp1141
g1122
ag1124
ag1126
ag1128
ag1130
ag1132
ag1134
ag1136
ag1138
ag1140
aS'0,0,+,-'
p1142
aa(lp1143
g1122
ag1124
ag1126
ag1128
ag1130
ag1132
ag1134
ag1136
ag1138
ag1140
ag1142
aS'+,0,0,-'
p1144
aa(lp1145
g1122
ag1124
ag1126
ag1128
ag1130
ag1132
ag1134
ag1136
ag1138
ag1140
ag1142
ag1144
aS'0,+,+,-'
p1146
aa(lp1147
g1122
ag1124
ag1126
ag1128
ag1130
ag1132
ag1134
ag1136
ag1138
ag1140
ag1142
ag1144
ag1146
aS'0,+,0,-'
p1148
aa(lp1149
g1122
ag1124
ag1126
ag1128
ag1130
ag1132
ag1134
ag1136
ag1138
ag1140
ag1142
ag1144
ag1146
ag1148
aS'0,+,-,-'
p1150
aa(lp1151
g1122
ag1124
ag1126
ag1128
ag1130
ag1132
ag1134
ag1136
ag1138
ag1140
ag1142
ag1144
ag1146
ag1148
ag1150
aS'0,+,0,-'
p1152
aa(lp1153
g1122
ag1124
ag1126
ag1128
ag1130
ag1132
ag1134
ag1136
ag1138
ag1140
ag1142
ag1144
ag1146
ag1148
ag1150
ag1152
aS'+,+,-,-'
p1154
aa(lp1155
g1122
ag1124
ag1126
ag1128
ag1130
ag1132
ag1134
ag1136
ag1138
ag1140
ag1142
ag1144
ag1146
ag1148
ag1150
ag1152
ag1154
aS'+,0,-,0'
p1156
aa(lp1157
g1122
ag1124
ag1126
ag1128
ag1130
ag1132
ag1134
ag1136
ag1138
ag1140
ag1142
ag1144
ag1146
ag1148
ag1150
ag1152
ag1154
ag1156
aS'0,0,0,0'
p1158
aa(lp1159
g1122
ag1124
ag1126
ag1128
ag1130
ag1132
ag1134
ag1136
ag1138
ag1140
ag1142
ag1144
ag1146
ag1148
ag1150
ag1152
ag1154
ag1156
ag1158
aS'-,0,+,0'
p1160
aa(lp1161
g1122
ag1124
ag1126
ag1128
ag1130
ag1132
ag1134
ag1136
ag1138
ag1140
ag1142
ag1144
ag1146
ag1148
ag1150
ag1152
ag1154
ag1156
ag1158
ag1160
aS'0,0,+,0'
p1162
aa(lp1163
g1122
ag1124
ag1126
ag1128
ag1130
ag1132
ag1134
ag1136
ag1138
ag1140
ag1142
ag1144
ag1146
ag1148
ag1150
ag1152
ag1154
ag1156
ag1158
ag1160
ag1162
aS'0,0,0,0'
p1164
aa(lp1165
g1122
ag1124
ag1126
ag1128
ag1130
ag1132
ag1134
ag1136
ag1138
ag1140
ag1142
ag1144
ag1146
ag1148
ag1150
ag1152
ag1154
ag1156
ag1158
ag1160
ag1162
ag1164
aS'0,0,+,0'
p1166
aa(lp1167
g1122
ag1124
ag1126
ag1128
ag1130
ag1132
ag1134
ag1136
ag1138
ag1140
ag1142
ag1144
ag1146
ag1148
ag1150
ag1152
ag1154
ag1156
ag1158
ag1160
ag1162
ag1164
ag1166
aS'0,0,0,0'
p1168
aas.