(dp0
S'pbr'
p1
(lp2
(lp3
S'-,-,+,+'
p4
aa(lp5
g4
aS'+,+,+,+'
p6
aa(lp7
S'-,-,+,+'
p8
aa(lp9
g8
aS'-,+,+,+'
p10
aa(lp11
S'-,-,+,+'
p12
aa(lp13
g12
aS'+,+,+,+'
p14
aa(lp15
S'-,-,+,+'
p16
aa(lp17
g16
aS'-,0,+,+'
p18
aa(lp19
S'-,-,+,0'
p20
aa(lp21
g20
aS'-,-,+,+'
p22
aa(lp23
g20
ag22
aS'-,+,+,+'
p24
aa(lp25
S'-,-,+,+'
p26
aa(lp27
g26
aS'-,+,+,+'
p28
aa(lp29
g26
ag28
aS'-,-,+,+'
p30
aa(lp31
g26
ag28
ag30
aS'+,+,+,+'
p32
aa(lp33
S'-,-,+,+'
p34
aa(lp35
S'-,-,+,+'
p36
aa(lp37
g36
aS'-,+,+,+'
p38
aa(lp39
g36
ag38
aS'-,+,-,-'
p40
aa(lp41
S'-,-,+,+'
p42
aa(lp43
g42
aS'-,+,-,+'
p44
aa(lp45
g42
ag44
aS'-,-,+,+'
p46
aa(lp47
g42
ag44
ag46
aS'+,+,+,+'
p48
aa(lp49
S'-,-,+,0'
p50
aa(lp51
g50
aS'-,-,+,+'
p52
aa(lp53
g50
ag52
aS'-,+,+,+'
p54
aasS'pcr'
p55
(lp56
(lp57
S'-,-,+,-'
p58
aa(lp59
g58
aS'+,-,+,-'
p60
aa(lp61
S'-,-,+,-'
p62
aa(lp63
g62
aS'0,-,+,-'
p64
aa(lp65
S'-,-,+,-'
p66
aa(lp67
g66
aS'+,-,+,-'
p68
aa(lp69
g66
ag68
aS'+,-,+,+'
p70
aa(lp71
S'-,-,+,-'
p72
aa(lp73
g72
aS'-,-,+,+'
p74
aa(lp75
S'-,-,+,-'
p76
aa(lp77
g76
aS'+,-,+,0'
p78
aa(lp79
S'-,-,+,-'
p80
aa(lp81
g80
aS'+,-,+,-'
p82
aa(lp83
g80
ag82
aS'+,-,+,+'
p84
aa(lp85
S'-,-,+,-'
p86
aa(lp87
S'-,-,+,-'
p88
aa(lp89
g88
aS'+,+,+,+'
p90
aa(lp91
S'-,-,+,-'
p92
aa(lp93
g92
aS'+,-,+,-'
p94
aa(lp95
S'-,-,+,-'
p96
aasS'rotr'
p97
(lp98
(lp99
S'+,-,-,+'
p100
aa(lp101
g100
aS'+,-,0,+'
p102
aa(lp103
g100
ag102
aS'-,-,+,+'
p104
aa(lp105
g100
ag102
ag104
aS'-,+,+,+'
p106
aa(lp107
g100
ag102
ag104
ag106
aS'-,+,-,+'
p108
aa(lp109
g100
ag102
ag104
ag106
ag108
aS'+,-,-,+'
p110
aa(lp111
g100
ag102
ag104
ag106
ag108
ag110
aS'-,-,-,+'
p112
aa(lp113
S'+,-,-,+'
p114
aa(lp115
S'+,-,-,+'
p116
aa(lp117
S'+,-,-,+'
p118
aa(lp119
S'+,-,-,+'
p120
aa(lp121
g120
aS'0,-,+,+'
p122
aa(lp123
g120
ag122
aS'+,-,-,+'
p124
aa(lp125
g120
ag122
ag124
aS'-,-,-,+'
p126
aa(lp127
S'+,-,-,+'
p128
aa(lp129
S'+,-,-,+'
p130
aa(lp131
S'+,-,-,+'
p132
aa(lp133
g132
aS'-,-,-,+'
p134
aa(lp135
g132
ag134
aS'+,0,-,+'
p136
aa(lp137
S'+,-,-,+'
p138
aa(lp139
g138
aS'-,+,+,+'
p140
aa(lp141
g138
ag140
aS'+,-,-,+'
p142
aa(lp143
S'+,-,-,+'
p144
aasS'u'
p145
(lp146
(lp147
S'0,-,-,-'
p148
aa(lp149
g148
aS'-,-,0,-'
p150
aa(lp151
g148
ag150
aS'-,-,+,-'
p152
aa(lp153
g148
ag150
ag152
aS'0,-,+,-'
p154
aa(lp155
g148
ag150
ag152
ag154
aS'+,-,-,-'
p156
aa(lp157
g148
ag150
ag152
ag154
ag156
aS'0,-,+,-'
p158
aa(lp159
g148
ag150
ag152
ag154
ag156
ag158
aS'+,-,+,-'
p160
aa(lp161
g148
ag150
ag152
ag154
ag156
ag158
ag160
aS'0,-,-,-'
p162
aa(lp163
g148
ag150
ag152
ag154
ag156
ag158
ag160
ag162
aS'-,-,-,-'
p164
aa(lp165
g148
ag150
ag152
ag154
ag156
ag158
ag160
ag162
ag164
aS'0,0,-,-'
p166
aa(lp167
g148
ag150
ag152
ag154
ag156
ag158
ag160
ag162
ag164
ag166
aS'0,0,0,0'
p168
aa(lp169
g148
ag150
ag152
ag154
ag156
ag158
ag160
ag162
ag164
ag166
ag168
aS'0,0,+,0'
p170
aa(lp171
g148
ag150
ag152
ag154
ag156
ag158
ag160
ag162
ag164
ag166
ag168
ag170
aS'0,0,0,0'
p172
aa(lp173
S'-,-,-,-'
p174
aa(lp175
g174
aS'-,-,0,-'
p176
aa(lp177
g174
ag176
aS'0,-,+,-'
p178
aa(lp179
g174
ag176
ag178
aS'-,-,+,-'
p180
aa(lp181
g174
ag176
ag178
ag180
aS'0,-,+,-'
p182
aa(lp183
g174
ag176
ag178
ag180
ag182
aS'+,-,+,-'
p184
aa(lp185
g174
ag176
ag178
ag180
ag182
ag184
aS'-,-,-,-'
p186
aa(lp187
g174
ag176
ag178
ag180
ag182
ag184
ag186
aS'0,-,-,-'
p188
aa(lp189
g174
ag176
ag178
ag180
ag182
ag184
ag186
ag188
aS'0,0,+,0'
p190
aa(lp191
g174
ag176
ag178
ag180
ag182
ag184
ag186
ag188
ag190
aS'0,0,0,0'
p192
aasS'rotl'
p193
(lp194
(lp195
S'+,-,+,-'
p196
aa(lp197
g196
aS'+,-,-,-'
p198
aa(lp199
g196
ag198
aS'-,-,-,-'
p200
aa(lp201
g196
ag198
ag200
aS'-,+,+,-'
p202
aa(lp203
g196
ag198
ag200
ag202
aS'-,+,+,0'
p204
aa(lp205
g196
ag198
ag200
ag202
ag204
aS'+,-,+,-'
p206
aa(lp207
S'+,-,+,-'
p208
aa(lp209
g208
aS'-,-,+,-'
p210
aa(lp211
g208
ag210
aS'+,-,+,-'
p212
aa(lp213
g208
ag210
ag212
aS'0,-,+,-'
p214
aa(lp215
g208
ag210
ag212
ag214
aS'+,-,+,-'
p216
aa(lp217
S'+,-,+,-'
p218
aa(lp219
g218
aS'0,-,+,-'
p220
aa(lp221
g218
ag220
aS'+,-,+,-'
p222
aa(lp223
g218
ag220
ag222
aS'-,-,+,-'
p224
aa(lp225
S'+,-,-,-'
p226
aa(lp227
g226
aS'+,-,+,-'
p228
aa(lp229
S'+,-,+,-'
p230
aa(lp231
g230
aS'+,-,0,-'
p232
aa(lp233
g230
ag232
aS'+,-,+,-'
p234
aa(lp235
g230
ag232
ag234
aS'0,+,+,-'
p236
aa(lp237
g230
ag232
ag234
ag236
aS'-,-,-,-'
p238
aa(lp239
g230
ag232
ag234
ag236
ag238
aS'-,0,+,-'
p240
aa(lp241
g230
ag232
ag234
ag236
ag238
ag240
aS'+,+,0,-'
p242
aa(lp243
g230
ag232
ag234
ag236
ag238
ag240
ag242
aS'0,0,+,-'
p244
aa(lp245
g230
ag232
ag234
ag236
ag238
ag240
ag242
ag244
aS'-,0,+,0'
p246
aa(lp247
g230
ag232
ag234
ag236
ag238
ag240
ag242
ag244
ag246
aS'+,0,+,0'
p248
aa(lp249
g230
ag232
ag234
ag236
ag238
ag240
ag242
ag244
ag246
ag248
aS'-,0,+,0'
p250
aa(lp251
S'+,-,-,-'
p252
aa(lp253
g252
aS'+,-,+,-'
p254
aa(lp255
S'+,-,0,-'
p256
aa(lp257
g256
aS'+,-,+,-'
p258
aa(lp259
g256
ag258
aS'0,-,+,-'
p260
aa(lp261
g256
ag258
ag260
aS'+,-,+,-'
p262
aa(lp263
g256
ag258
ag260
ag262
aS'+,0,+,-'
p264
aa(lp265
g256
ag258
ag260
ag262
ag264
aS'0,0,+,-'
p266
aa(lp267
g256
ag258
ag260
ag262
ag264
ag266
aS'-,0,+,0'
p268
aa(lp269
S'+,-,+,-'
p270
aa(lp271
S'+,-,+,-'
p272
aa(lp273
g272
aS'-,+,+,+'
p274
aa(lp275
g272
ag274
aS'+,-,+,-'
p276
aa(lp277
g272
ag274
ag276
aS'-,-,-,-'
p278
aa(lp279
S'+,-,+,-'
p280
aa(lp281
g280
aS'+,-,-,-'
p282
aa(lp283
g280
ag282
aS'+,-,+,-'
p284
aasS'pcl'
p285
(lp286
(lp287
S'-,-,-,+'
p288
aa(lp289
g288
aS'-,-,-,-'
p290
aa(lp291
g288
ag290
aS'+,-,-,-'
p292
aa(lp293
S'-,-,-,+'
p294
aa(lp295
g294
aS'-,-,-,0'
p296
aa(lp297
g294
ag296
aS'-,-,-,-'
p298
aa(lp299
g294
ag296
ag298
aS'+,-,-,-'
p300
aa(lp301
g294
ag296
ag298
ag300
aS'-,-,-,-'
p302
aa(lp303
S'-,-,-,+'
p304
aa(lp305
g304
aS'-,-,-,-'
p306
aa(lp307
g304
ag306
aS'+,-,-,-'
p308
aa(lp309
S'-,-,-,+'
p310
aa(lp311
g310
aS'-,-,-,-'
p312
aa(lp313
g310
ag312
aS'+,-,-,-'
p314
aa(lp315
S'-,-,-,+'
p316
aa(lp317
g316
aS'-,-,-,0'
p318
aa(lp319
g316
ag318
aS'0,-,-,-'
p320
aa(lp321
g316
ag318
ag320
aS'+,-,-,-'
p322
aa(lp323
S'-,-,-,+'
p324
aa(lp325
g324
aS'-,-,+,+'
p326
aa(lp327
g324
ag326
aS'+,-,-,-'
p328
aa(lp329
S'-,-,-,+'
p330
aa(lp331
g330
aS'-,-,-,-'
p332
aa(lp333
g330
ag332
aS'0,-,-,-'
p334
aa(lp335
g330
ag332
ag334
aS'+,-,-,-'
p336
aa(lp337
S'-,-,-,+'
p338
aa(lp339
g338
aS'-,-,-,0'
p340
aa(lp341
g338
ag340
aS'-,-,-,-'
p342
aa(lp343
g338
ag340
ag342
aS'+,-,-,-'
p344
aa(lp345
S'-,-,-,+'
p346
aa(lp347
g346
aS'-,-,-,-'
p348
aa(lp349
g346
ag348
aS'-,+,+,+'
p350
aa(lp351
S'-,-,-,+'
p352
aa(lp353
g352
aS'-,-,-,0'
p354
aa(lp355
g352
ag354
aS'-,-,+,-'
p356
aa(lp357
g352
ag354
ag356
aS'+,+,+,+'
p358
aasS'pbl'
p359
(lp360
(lp361
S'-,-,+,-'
p362
aa(lp363
g362
aS'-,-,-,-'
p364
aa(lp365
g362
ag364
aS'+,+,-,-'
p366
aa(lp367
S'+,-,0,-'
p368
aa(lp369
g368
aS'+,-,-,-'
p370
aa(lp371
g368
ag370
aS'-,-,-,-'
p372
aa(lp373
g368
ag370
ag372
aS'+,+,-,-'
p374
aa(lp375
S'-,-,-,-'
p376
aa(lp377
g376
aS'+,-,+,-'
p378
aa(lp379
g376
ag378
aS'+,+,-,-'
p380
aa(lp381
S'-,-,+,-'
p382
aa(lp383
g382
aS'-,+,+,+'
p384
aa(lp385
g382
ag384
aS'+,+,-,-'
p386
aa(lp387
S'-,-,-,-'
p388
aa(lp389
g388
aS'+,+,-,-'
p390
aa(lp391
g388
ag390
aS'-,+,-,-'
p392
aa(lp393
g388
ag390
ag392
aS'-,+,+,+'
p394
aa(lp395
S'-,-,-,-'
p396
aa(lp397
g396
aS'+,+,-,-'
p398
aa(lp399
g396
ag398
aS'-,+,-,-'
p400
aa(lp401
S'-,-,-,-'
p402
aa(lp403
g402
aS'+,+,-,-'
p404
aa(lp405
S'-,-,-,-'
p406
aa(lp407
g406
aS'+,+,-,-'
p408
aa(lp409
S'-,-,+,-'
p410
aa(lp411
g410
aS'-,+,+,+'
p412
aa(lp413
g410
ag412
aS'-,-,-,-'
p414
aa(lp415
g410
ag412
ag414
aS'+,+,-,-'
p416
aa(lp417
S'-,-,-,-'
p418
aas.