(dp0
S'pcr_4'
p1
(lp2
S'+-+-'
p3
aS'--+-'
p4
aS'-0+0'
p5
aS'0-+-'
p6
aS'--+-'
p7
aS'-0+0'
p8
aS'--+-'
p9
aS'-0+-'
p10
aS'-0+0'
p11
aS'+-+-'
p12
aS'--+-'
p13
aS'-0+0'
p14
aS'+-+-'
p15
aS'--+-'
p16
aS'-0+0'
p17
aS'--+-'
p18
aS'-0+0'
p19
aS'--+-'
p20
aS'-0+0'
p21
aS'+-+-'
p22
aS'--+-'
p23
aS'-0+0'
p24
aS'+-+-'
p25
aS'--+-'
p26
aS'-0+0'
p27
aS'+-+-'
p28
aS'--+-'
p29
aS'0-+-'
p30
aS'--+-'
p31
aS'+-+-'
p32
aS'-0+0'
p33
aS'+-+-'
p34
aS'--+-'
p35
aS'-0+0'
p36
aS'+-+-'
p37
aS'--+-'
p38
aS'-0+0'
p39
aS'+-+-'
p40
aS'0-+-'
p41
aS'+-+-'
p42
aS'0-+0'
p43
aS'-0+0'
p44
aS'+-+-'
p45
aS'--+-'
p46
aS'-0+0'
p47
aS'+-+-'
p48
aS'--+0'
p49
aS'00+0'
p50
aS'+-+-'
p51
aS'+-+0'
p52
aS'00+0'
p53
aS'+-+-'
p54
aS'+-+0'
p55
aS'---0'
p56
aS'00+0'
p57
aS'+-+-'
p58
aS'+-+0'
p59
aS'---0'
p60
aS'00+0'
p61
aS'+-+-'
p62
aS'---0'
p63
aS'+-+0'
p64
aS'00+0'
p65
aS'-0-0'
p66
aS'+-+0'
p67
aS'---0'
p68
aS'0-+0'
p69
aS'00+0'
p70
aS'--+0'
p71
aS'+-+0'
p72
aS'-0+0'
p73
aS'+-+0'
p74
aS'-0+0'
p75
aS'00+0'
p76
aS'+-++'
p77
aS'+-+0'
p78
aS'00+0'
p79
aS'+-++'
p80
aS'+-+0'
p81
aS'0-+0'
p82
aS'00+0'
p83
aS'+-++'
p84
aS'+-+0'
p85
aS'+0+0'
p86
aS'+-++'
p87
aS'+0+0'
p88
aS'+-++'
p89
aS'+-+0'
p90
aS'+000'
p91
aS'+0+0'
p92
aS'+-++'
p93
aS'+-0+'
p94
aS'+0+0'
p95
aS'+--+'
p96
aS'+0+0'
p97
aS'+-++'
p98
aS'+0+0'
p99
aS'+--+'
p100
aS'+-++'
p101
aS'+-+0'
p102
aS'+0+0'
p103
aS'+--+'
p104
aS'+-++'
p105
asS'rotl_10'
p106
(lp107
S'+-00'
p108
aS'0000'
p109
aS'-0-0'
p110
aS'+-+-'
p111
aS'+-0-'
p112
aS'+-00'
p113
aS'-0-0'
p114
aS'00+0'
p115
aS'+-+-'
p116
aS'+-0-'
p117
aS'+-+-'
p118
aS'0000'
p119
aS'-0-0'
p120
aS'+-+-'
p121
aS'0-0-'
p122
aS'0000'
p123
aS'+000'
p124
aS'+-+-'
p125
aS'+-0-'
p126
aS'0000'
p127
aS'+-+-'
p128
aS'+000'
p129
aS'+-+-'
p130
aS'0000'
p131
aS'+-0-'
p132
aS'+---'
p133
aS'0000'
p134
aS'00-0'
p135
aS'+-+-'
p136
aS'0000'
p137
aS'-0-0'
p138
aS'+-+-'
p139
aS'0-0-'
p140
aS'+-+-'
p141
aS'-0+0'
p142
aS'+-+-'
p143
aS'0---'
p144
aS'+-00'
p145
aS'+-+-'
p146
aS'0000'
p147
aS'-0+0'
p148
aS'0000'
p149
aS'+-+-'
p150
aS'-0+0'
p151
aS'+-+-'
p152
aS'--+0'
p153
aS'+-+-'
p154
aS'0-+0'
p155
aS'+-+-'
p156
aS'--+0'
p157
aS'-000'
p158
aS'+-+-'
p159
aS'--+-'
p160
aS'-000'
p161
aS'+-+-'
p162
aS'0-+-'
p163
aS'0-0-'
p164
aS'0-+-'
p165
aS'-0-0'
p166
aS'+-+-'
p167
aS'+-0-'
p168
aS'-0-0'
p169
aS'-000'
p170
aS'+-+-'
p171
aS'---0'
p172
aS'-000'
p173
aS'+-+-'
p174
aS'+---'
p175
aS'+-+-'
p176
aS'+0-0'
p177
aS'-0-0'
p178
aS'+-+-'
p179
aS'+-0-'
p180
aS'+-+-'
p181
aS'+-0-'
p182
aS'00-0'
p183
aS'+000'
p184
aS'00-0'
p185
aS'+-+-'
p186
aS'+---'
p187
aS'+-+-'
p188
aS'+0+0'
p189
aS'+-0-'
p190
aS'0--0'
p191
aS'00-0'
p192
aS'+-+-'
p193
aS'+---'
p194
aS'0-00'
p195
aS'00-0'
p196
aS'+0+0'
p197
aS'+-+-'
p198
aS'0-0-'
p199
aS'00-0'
p200
aS'+0+0'
p201
aS'+-+-'
p202
aS'+-0-'
p203
aS'0000'
p204
aS'00-0'
p205
aS'0000'
p206
aS'-0+0'
p207
aS'0000'
p208
aS'+-+-'
p209
aS'0000'
p210
asS'rotl_11'
p211
(lp212
S'+-00'
p213
aS'+-0-'
p214
aS'+-00'
p215
aS'-0+0'
p216
aS'0000'
p217
aS'+-+-'
p218
aS'--+0'
p219
aS'0000'
p220
aS'+-+-'
p221
aS'--0-'
p222
aS'+-+-'
p223
aS'0000'
p224
aS'+-+-'
p225
aS'+---'
p226
aS'+-+-'
p227
aS'+0-0'
p228
aS'0000'
p229
aS'+-+-'
p230
aS'+---'
p231
aS'0000'
p232
aS'+-+-'
p233
aS'+---'
p234
aS'+-+-'
p235
aS'--0-'
p236
aS'0000'
p237
aS'+-+-'
p238
aS'--+-'
p239
aS'+-+-'
p240
aS'0000'
p241
aS'-0-0'
p242
aS'+-+-'
p243
aS'0-00'
p244
aS'-0+0'
p245
aS'+-+-'
p246
aS'--+-'
p247
aS'+-+-'
p248
aS'-000'
p249
aS'+-+-'
p250
aS'---0'
p251
aS'-000'
p252
aS'+-+-'
p253
aS'0-0-'
p254
aS'--0-'
p255
aS'0-+-'
p256
aS'--0-'
p257
aS'-000'
p258
aS'-0-0'
p259
aS'+-+-'
p260
aS'----'
p261
aS'+-+-'
p262
aS'-0-0'
p263
aS'-000'
p264
aS'+-+-'
p265
aS'----'
p266
aS'+---'
p267
aS'-0-0'
p268
aS'+-+-'
p269
aS'+---'
p270
aS'0-0-'
p271
aS'-000'
p272
aS'+-+-'
p273
aS'+0-0'
p274
aS'-0-0'
p275
aS'+-+-'
p276
aS'+0-0'
p277
aS'--00'
p278
aS'-0-0'
p279
aS'+-+-'
p280
aS'+-0-'
p281
aS'+-+-'
p282
aS'+-0-'
p283
aS'0000'
p284
aS'+-+-'
p285
aS'+0+0'
p286
aS'-0-0'
p287
aS'+-+-'
p288
aS'0000'
p289
asS'rotl_12'
p290
(lp291
S'--+-'
p292
aS'+-0-'
p293
aS'0000'
p294
aS'+-+-'
p295
aS'--+-'
p296
aS'+-+-'
p297
aS'+-0-'
p298
aS'--+0'
p299
aS'-000'
p300
aS'+-+-'
p301
aS'0-+-'
p302
aS'+-+-'
p303
aS'0-00'
p304
aS'-000'
p305
aS'0000'
p306
aS'+-+-'
p307
aS'+-0-'
p308
aS'0000'
p309
aS'+-+-'
p310
aS'+0-0'
p311
aS'0000'
p312
aS'+-+-'
p313
aS'+-0-'
p314
aS'0000'
p315
aS'+-+-'
p316
aS'--0-'
p317
aS'0000'
p318
aS'+-+-'
p319
aS'--0-'
p320
aS'+-0-'
p321
aS'+-+-'
p322
aS'----'
p323
aS'0000'
p324
aS'-000'
p325
aS'-0+0'
p326
aS'+-+-'
p327
aS'0-0-'
p328
aS'+-+-'
p329
aS'0-+-'
p330
aS'----'
p331
aS'0-0-'
p332
aS'-000'
p333
aS'+-+-'
p334
aS'--0-'
p335
aS'+-+-'
p336
aS'0000'
p337
aS'+-+-'
p338
aS'-0-0'
p339
aS'+-+-'
p340
aS'----'
p341
aS'+-+-'
p342
aS'0-00'
p343
aS'-000'
p344
aS'+-+-'
p345
aS'0000'
p346
aS'0-0-'
p347
aS'+0-0'
p348
aS'+-+-'
p349
aS'0-+-'
p350
aS'+-+-'
p351
aS'+000'
p352
aS'-000'
p353
asS'pbl_10'
p354
(lp355
S'---0'
p356
aS'-0-0'
p357
aS'----'
p358
aS'---0'
p359
aS'-0-0'
p360
aS'+---'
p361
aS'---0'
p362
aS'-0-0'
p363
aS'----'
p364
aS'---0'
p365
aS'-0-0'
p366
aS'+---'
p367
aS'----'
p368
aS'---0'
p369
aS'-0-0'
p370
aS'0---'
p371
aS'---0'
p372
aS'----'
p373
aS'---0'
p374
aS'----'
p375
aS'-0-0'
p376
aS'0---'
p377
aS'----'
p378
aS'-0-0'
p379
aS'----'
p380
aS'-0-0'
p381
aS'----'
p382
aS'-0-0'
p383
aS'----'
p384
aS'-0-0'
p385
aS'+-0-'
p386
aS'----'
p387
asS'pbl_11'
p388
(lp389
S'---0'
p390
aS'----'
p391
aS'-0-0'
p392
aS'----'
p393
aS'---0'
p394
aS'-0-0'
p395
aS'----'
p396
aS'---0'
p397
aS'----'
p398
aS'-000'
p399
aS'----'
p400
aS'-0-0'
p401
aS'----'
p402
aS'0-+-'
p403
aS'----'
p404
aS'-0-0'
p405
aS'----'
p406
aS'-0-0'
p407
aS'----'
p408
aS'-0-0'
p409
asS'pbl_12'
p410
(lp411
S'---0'
p412
aS'-000'
p413
aS'-0-0'
p414
aS'----'
p415
aS'---0'
p416
aS'-0-0'
p417
aS'0---'
p418
aS'--+0'
p419
aS'---0'
p420
aS'----'
p421
aS'-0-0'
p422
aS'----'
p423
aS'---0'
p424
aS'----'
p425
aS'---0'
p426
aS'-0-0'
p427
aS'----'
p428
aS'-0-0'
p429
aS'----'
p430
aS'-000'
p431
aS'-0-0'
p432
aS'+-+-'
p433
asS'pcr_1'
p434
(lp435
S'-0+-'
p436
aS'--+-'
p437
aS'-0+-'
p438
aS'-0+0'
p439
aS'--+-'
p440
aS'+-+-'
p441
aS'--+-'
p442
aS'-0+0'
p443
aS'-0+-'
p444
aS'-0+0'
p445
aS'--+-'
p446
aS'+-+-'
p447
aS'--+-'
p448
aS'-0+0'
p449
aS'--+-'
p450
aS'-0+0'
p451
aS'+-+-'
p452
aS'--+-'
p453
aS'0-+-'
p454
aS'-0+0'
p455
aS'--+-'
p456
aS'0-+-'
p457
aS'-0+0'
p458
aS'--+-'
p459
aS'-0+0'
p460
aS'--+-'
p461
aS'0-+-'
p462
aS'--+0'
p463
aS'-0+0'
p464
aS'+-+-'
p465
aS'--+-'
p466
aS'0-+-'
p467
aS'0-+0'
p468
aS'+-+-'
p469
aS'--+0'
p470
aS'-0+0'
p471
aS'+-+-'
p472
aS'--+-'
p473
aS'0-+0'
p474
aS'-0+0'
p475
aS'+-+-'
p476
aS'0-+0'
p477
aS'-0+0'
p478
aS'+-+-'
p479
aS'--+0'
p480
aS'+-+0'
p481
aS'00+0'
p482
aS'+-+-'
p483
aS'+-+0'
p484
aS'-0+0'
p485
aS'+0+0'
p486
aS'+-+0'
p487
aS'+0+0'
p488
aS'+-+0'
p489
aS'+0+0'
p490
aS'+-++'
p491
aS'+-+0'
p492
aS'+0+0'
p493
aS'+-++'
p494
aS'00+0'
p495
aS'+-++'
p496
aS'+-+0'
p497
aS'+-++'
p498
aS'+-+0'
p499
aS'+0+0'
p500
aS'+-++'
p501
aS'+-+0'
p502
aS'+-++'
p503
aS'+0+0'
p504
aS'00+0'
p505
aS'+--+'
p506
aS'+-++'
p507
aS'-000'
p508
aS'-0+0'
p509
aS'+0+0'
p510
aS'-0-0'
p511
aS'+0+0'
p512
asS'rotr_10'
p513
(lp514
S'+-00'
p515
aS'+--+'
p516
aS'+-00'
p517
aS'0000'
p518
aS'+--+'
p519
aS'---0'
p520
aS'0-++'
p521
aS'0-00'
p522
aS'0000'
p523
aS'0--+'
p524
aS'+-0+'
p525
aS'0000'
p526
aS'-0+0'
p527
aS'+--+'
p528
aS'+-0+'
p529
aS'00+0'
p530
aS'0000'
p531
aS'+--+'
p532
aS'+-++'
p533
aS'+--+'
p534
aS'0-00'
p535
aS'+0+0'
p536
aS'+--+'
p537
aS'0-++'
p538
aS'+--+'
p539
aS'+0-0'
p540
aS'+--+'
p541
aS'0-++'
p542
aS'+--+'
p543
aS'+0-0'
p544
aS'-0+0'
p545
aS'+--+'
p546
aS'0000'
p547
aS'+--+'
p548
aS'+-0+'
p549
aS'0000'
p550
aS'+--+'
p551
aS'0-0+'
p552
aS'0000'
p553
aS'+--+'
p554
aS'+0-0'
p555
aS'+--+'
p556
aS'0-0+'
p557
aS'0000'
p558
aS'+--+'
p559
aS'--++'
p560
aS'+--+'
p561
aS'0000'
p562
aS'+--+'
p563
aS'+-0+'
p564
aS'0000'
p565
aS'+--+'
p566
aS'---+'
p567
aS'-0+0'
p568
aS'+--+'
p569
aS'0000'
p570
aS'---+'
p571
aS'+-++'
p572
aS'-0+0'
p573
aS'-000'
p574
aS'+--+'
p575
aS'0000'
p576
aS'-000'
p577
aS'-0+0'
p578
aS'+--+'
p579
aS'0--+'
p580
aS'0-00'
p581
aS'-0+0'
p582
aS'-000'
p583
aS'+--+'
p584
aS'0-++'
p585
asS'rotr_11'
p586
(lp587
S'+-00'
p588
aS'+--0'
p589
aS'+-00'
p590
aS'+--0'
p591
aS'0000'
p592
aS'+--+'
p593
aS'+-00'
p594
aS'0-++'
p595
aS'+-00'
p596
aS'0000'
p597
aS'+--+'
p598
aS'0-0+'
p599
aS'+-0+'
p600
aS'+-00'
p601
aS'0000'
p602
aS'+--+'
p603
aS'+-00'
p604
aS'-0-0'
p605
aS'+--+'
p606
aS'0--+'
p607
aS'+--+'
p608
aS'-000'
p609
aS'-0-0'
p610
aS'+--+'
p611
aS'0--+'
p612
aS'0--0'
p613
aS'+--+'
p614
aS'0-0+'
p615
aS'+--+'
p616
aS'-0-0'
p617
aS'+--+'
p618
aS'--++'
p619
aS'-000'
p620
aS'+--+'
p621
aS'0-++'
p622
aS'+000'
p623
aS'+--+'
p624
aS'+-++'
p625
aS'+-0+'
p626
aS'-000'
p627
aS'+000'
p628
aS'+--+'
p629
aS'+-0+'
p630
aS'+0+0'
p631
aS'+--+'
p632
aS'0000'
p633
aS'+--+'
p634
aS'0-00'
p635
aS'00+0'
p636
aS'+--+'
p637
aS'0-00'
p638
aS'0--+'
p639
aS'+--+'
p640
aS'-0+0'
p641
aS'-000'
p642
aS'+--+'
p643
aS'0-0+'
p644
aS'-000'
p645
aS'+--+'
p646
aS'0-0+'
p647
aS'---+'
p648
aS'+--+'
p649
aS'0000'
p650
aS'+--+'
p651
aS'-0+0'
p652
asS'pbr_8'
p653
(lp654
S'--+0'
p655
aS'-0+0'
p656
aS'--++'
p657
aS'--+0'
p658
aS'-0+0'
p659
aS'--++'
p660
aS'--+0'
p661
aS'+-+0'
p662
aS'-0+0'
p663
aS'--++'
p664
aS'-0+0'
p665
aS'--++'
p666
aS'-0+0'
p667
aS'---+'
p668
aS'--++'
p669
aS'--+0'
p670
aS'-0+0'
p671
aS'---+'
p672
aS'--++'
p673
aS'-0+0'
p674
aS'0-++'
p675
aS'--++'
p676
aS'-0+0'
p677
aS'-0-0'
p678
aS'0-++'
p679
aS'--++'
p680
aS'-000'
p681
aS'-0+0'
p682
aS'+-++'
p683
aS'--++'
p684
asS'u_12'
p685
(lp686
S'-0+0'
p687
aS'-0-0'
p688
aS'-0+0'
p689
asS'u_11'
p690
(lp691
S'+-00'
p692
aS'0000'
p693
aS'-0+0'
p694
aS'-000'
p695
aS'----'
p696
aS'+-00'
p697
aS'--+0'
p698
aS'-000'
p699
aS'-0-0'
p700
aS'+-0-'
p701
aS'-0-0'
p702
aS'+-0-'
p703
aS'0-0-'
p704
aS'----'
p705
aS'+-00'
p706
aS'+-0-'
p707
aS'-0-0'
p708
aS'+---'
p709
aS'-000'
p710
aS'+-0-'
p711
aS'--0-'
p712
aS'+-0-'
p713
aS'---0'
p714
aS'+-+-'
p715
aS'0-0-'
p716
aS'+-0-'
p717
aS'--+-'
p718
aS'---0'
p719
aS'-0+0'
p720
aS'+-+-'
p721
aS'0-0-'
p722
aS'-0+0'
p723
aS'-000'
p724
aS'+-+-'
p725
aS'--+-'
p726
aS'0-0-'
p727
aS'--00'
p728
aS'--+-'
p729
aS'--00'
p730
aS'-000'
p731
aS'+-+-'
p732
aS'----'
p733
aS'--00'
p734
aS'-000'
p735
aS'-0+0'
p736
aS'+-+-'
p737
aS'0---'
p738
aS'--+-'
p739
aS'+-+-'
p740
aS'-000'
p741
aS'0---'
p742
aS'-000'
p743
aS'-0+0'
p744
aS'+-0-'
p745
aS'0-0-'
p746
aS'--00'
p747
aS'-0+0'
p748
aS'-000'
p749
aS'+---'
p750
aS'--+-'
p751
aS'--00'
p752
aS'-000'
p753
aS'-0-0'
p754
aS'+-+-'
p755
aS'--0-'
p756
aS'-000'
p757
aS'-0-0'
p758
aS'+-+-'
p759
aS'0-0-'
p760
aS'-0-0'
p761
aS'-000'
p762
aS'+-+-'
p763
aS'--+-'
p764
aS'--+0'
p765
aS'-0-0'
p766
aS'+-+-'
p767
aS'-000'
p768
aS'+-+-'
p769
aS'0-0-'
p770
aS'-000'
p771
aS'-0-0'
p772
aS'+-+-'
p773
aS'--00'
p774
aS'0-0-'
p775
aS'+---'
p776
aS'0-+-'
p777
aS'--00'
p778
aS'-0-0'
p779
aS'+-+-'
p780
aS'0-0-'
p781
aS'+---'
p782
aS'0-0-'
p783
aS'--00'
p784
aS'0-0-'
p785
aS'-0-0'
p786
aS'+-+-'
p787
aS'+-0-'
p788
aS'--0-'
p789
aS'0-0-'
p790
aS'-0-0'
p791
aS'+-+-'
p792
aS'--0-'
p793
aS'0-0-'
p794
aS'--00'
p795
aS'0-0-'
p796
aS'-0+0'
p797
aS'+---'
p798
aS'0-0-'
p799
aS'0-+-'
p800
aS'---0'
p801
aS'-0-0'
p802
aS'-0+0'
p803
aS'+-+-'
p804
aS'0-0-'
p805
aS'--+0'
p806
aS'0-0-'
p807
aS'--00'
p808
aS'0-0-'
p809
aS'0-00'
p810
aS'-000'
p811
aS'+-+-'
p812
aS'0-0-'
p813
aS'--00'
p814
aS'0-0-'
p815
aS'-000'
p816
aS'+-+-'
p817
aS'0-+-'
p818
aS'--00'
p819
aS'0-0-'
p820
aS'-000'
p821
aS'-0+0'
p822
aS'+-0-'
p823
aS'0-0-'
p824
aS'-000'
p825
aS'-0+0'
p826
aS'-000'
p827
aS'+-+-'
p828
aS'0-0-'
p829
aS'-000'
p830
aS'+-0-'
p831
aS'--+-'
p832
aS'0-0-'
p833
aS'--00'
p834
aS'0-0-'
p835
aS'-000'
p836
aS'+-+-'
p837
aS'+-0-'
p838
aS'-000'
p839
aS'0-+-'
p840
aS'-0-0'
p841
aS'+-+-'
p842
aS'0-+-'
p843
aS'--00'
p844
aS'-0-0'
p845
aS'+-+-'
p846
aS'--00'
p847
aS'0-0-'
p848
aS'0-+-'
p849
aS'-0-0'
p850
aS'+-+-'
p851
aS'0-+-'
p852
aS'0---'
p853
aS'0-0-'
p854
aS'-0-0'
p855
aS'-000'
p856
aS'-0-0'
p857
asS'pbr_4'
p858
(lp859
S'-000'
p860
aS'---+'
p861
aS'--00'
p862
aS'-000'
p863
aS'--++'
p864
aS'--00'
p865
aS'-0+0'
p866
aS'--++'
p867
aS'--+0'
p868
aS'-0+0'
p869
aS'--++'
p870
aS'--+0'
p871
aS'-0+0'
p872
aS'--++'
p873
aS'--+0'
p874
aS'-0+0'
p875
aS'+--+'
p876
aS'--++'
p877
aS'--+0'
p878
aS'0--+'
p879
aS'--+0'
p880
aS'-0+0'
p881
aS'--++'
p882
aS'-0+0'
p883
aS'--++'
p884
aS'--+0'
p885
aS'--++'
p886
asS'pbr_5'
p887
(lp888
S'-0+0'
p889
aS'--+0'
p890
aS'-0+0'
p891
aS'0-+0'
p892
aS'--+0'
p893
aS'-0+0'
p894
aS'+-++'
p895
aS'--+0'
p896
aS'+--0'
p897
aS'-0+0'
p898
aS'--++'
p899
aS'--+0'
p900
aS'-0+0'
p901
aS'--++'
p902
aS'--+0'
p903
aS'--++'
p904
aS'--+0'
p905
aS'-0+0'
p906
aS'--++'
p907
aS'-0+0'
p908
aS'0-++'
p909
aS'-0+0'
p910
aS'--++'
p911
aS'--+0'
p912
aS'-0+0'
p913
aS'--++'
p914
aS'-0+0'
p915
aS'0-++'
p916
aS'--++'
p917
aS'---+'
p918
aS'-0+0'
p919
aS'---+'
p920
aS'-0+0'
p921
aS'--++'
p922
asS'pbr_6'
p923
(lp924
S'--+0'
p925
aS'-0+0'
p926
aS'--++'
p927
aS'--+0'
p928
aS'-0+0'
p929
aS'--++'
p930
aS'--+0'
p931
aS'---0'
p932
aS'-0+0'
p933
aS'--++'
p934
aS'--+0'
p935
aS'-0+0'
p936
aS'--++'
p937
aS'--+0'
p938
aS'-0+0'
p939
aS'--++'
p940
aS'--+0'
p941
aS'-0+0'
p942
aS'--+0'
p943
aS'-0-0'
p944
aS'--++'
p945
aS'--+0'
p946
aS'--++'
p947
aS'-0+0'
p948
aS'--++'
p949
aS'-0+0'
p950
aS'--++'
p951
aS'-0+0'
p952
aS'--++'
p953
aS'-0+0'
p954
asS'pbr_7'
p955
(lp956
S'--++'
p957
aS'--+0'
p958
aS'+--+'
p959
aS'--+0'
p960
aS'-0+0'
p961
aS'+-++'
p962
aS'--+0'
p963
aS'+-+0'
p964
aS'-0+0'
p965
aS'--+0'
p966
aS'-0+0'
p967
aS'--++'
p968
aS'--+0'
p969
aS'-0+0'
p970
aS'0-++'
p971
aS'--++'
p972
aS'--+0'
p973
aS'-0+0'
p974
aS'--++'
p975
aS'--+0'
p976
aS'--0+'
p977
aS'-0+0'
p978
aS'---+'
p979
aS'--+0'
p980
aS'--++'
p981
aS'--+0'
p982
aS'-0+0'
p983
aS'--++'
p984
aS'--+0'
p985
aS'--++'
p986
aS'-0+0'
p987
aS'--++'
p988
aS'---+'
p989
aS'--++'
p990
aS'-0+0'
p991
asS'pbr_1'
p992
(lp993
S'--+0'
p994
aS'-0+0'
p995
aS'--++'
p996
aS'---0'
p997
aS'-0+0'
p998
aS'+-0+'
p999
aS'--+0'
p1000
aS'-0+0'
p1001
aS'+-++'
p1002
aS'--+0'
p1003
aS'-0+0'
p1004
aS'--++'
p1005
aS'--+0'
p1006
aS'-0+0'
p1007
aS'0-++'
p1008
aS'-0+0'
p1009
aS'--++'
p1010
aS'-0+0'
p1011
aS'00+0'
p1012
aS'-0+0'
p1013
aS'+--+'
p1014
aS'--++'
p1015
aS'-0+0'
p1016
aS'--++'
p1017
aS'-0+0'
p1018
aS'0-++'
p1019
aS'--+0'
p1020
aS'--++'
p1021
aS'--+0'
p1022
aS'-0+0'
p1023
aS'+--+'
p1024
aS'---+'
p1025
aS'--++'
p1026
aS'-000'
p1027
asS'pbr_2'
p1028
(lp1029
S'-000'
p1030
aS'0-00'
p1031
aS'--00'
p1032
aS'--+0'
p1033
aS'--++'
p1034
aS'-0+0'
p1035
aS'--++'
p1036
aS'--+0'
p1037
aS'-0+0'
p1038
aS'--++'
p1039
aS'-0+0'
p1040
aS'--++'
p1041
aS'--+0'
p1042
aS'-0+0'
p1043
aS'+-++'
p1044
aS'--++'
p1045
aS'--+0'
p1046
aS'-0+0'
p1047
aS'--++'
p1048
aS'-0+0'
p1049
aS'--++'
p1050
aS'-0+0'
p1051
aS'---+'
p1052
aS'--++'
p1053
aS'--+0'
p1054
aS'-0+0'
p1055
aS'--0+'
p1056
aS'--++'
p1057
asS'pbr_3'
p1058
(lp1059
S'--+0'
p1060
aS'--++'
p1061
aS'--+0'
p1062
aS'--++'
p1063
aS'--+0'
p1064
aS'--++'
p1065
aS'--+0'
p1066
aS'-0+0'
p1067
aS'-000'
p1068
aS'--++'
p1069
aS'-0+0'
p1070
aS'--++'
p1071
aS'--+0'
p1072
aS'--++'
p1073
aS'-0+0'
p1074
aS'--++'
p1075
aS'-0+0'
p1076
aS'0-++'
p1077
aS'---+'
p1078
aS'--++'
p1079
aS'-0+0'
p1080
aS'-0-0'
p1081
aS'+-++'
p1082
aS'--++'
p1083
aS'-0+0'
p1084
aS'+-++'
p1085
aS'--++'
p1086
aS'-0+0'
p1087
aS'--++'
p1088
aS'-0+0'
p1089
aS'0-++'
p1090
aS'--++'
p1091
asS'pcl_5'
p1092
(lp1093
S'0--0'
p1094
aS'+--+'
p1095
aS'---+'
p1096
aS'-0-0'
p1097
aS'+--+'
p1098
aS'---0'
p1099
aS'---+'
p1100
aS'---0'
p1101
aS'---+'
p1102
aS'0--0'
p1103
aS'-0-0'
p1104
aS'---+'
p1105
aS'---0'
p1106
aS'-0-0'
p1107
aS'---+'
p1108
aS'---0'
p1109
aS'-0-0'
p1110
aS'+--0'
p1111
aS'---0'
p1112
aS'-0-0'
p1113
aS'+--0'
p1114
aS'---0'
p1115
aS'-0-0'
p1116
aS'----'
p1117
aS'---0'
p1118
aS'0---'
p1119
aS'----'
p1120
aS'-0-0'
p1121
aS'+---'
p1122
aS'----'
p1123
aS'-0-0'
p1124
aS'+---'
p1125
aS'----'
p1126
aS'-0-0'
p1127
aS'+---'
p1128
aS'0---'
p1129
aS'+---'
p1130
aS'+0-0'
p1131
aS'+---'
p1132
aS'-0-0'
p1133
aS'+---'
p1134
aS'+0-0'
p1135
aS'+-0-'
p1136
aS'+---'
p1137
aS'+0-0'
p1138
aS'+---'
p1139
aS'+0-0'
p1140
aS'+---'
p1141
aS'+0-0'
p1142
aS'+---'
p1143
aS'+0--'
p1144
aS'+---'
p1145
aS'+0-0'
p1146
aS'+---'
p1147
aS'+0--'
p1148
aS'+---'
p1149
aS'+0--'
p1150
aS'+0-0'
p1151
aS'+---'
p1152
aS'+0-0'
p1153
aS'+---'
p1154
aS'+0--'
p1155
aS'+---'
p1156
asS'pcl_4'
p1157
(lp1158
S'---+'
p1159
aS'---0'
p1160
aS'-0-0'
p1161
aS'---+'
p1162
aS'---0'
p1163
aS'---+'
p1164
aS'0-++'
p1165
aS'---0'
p1166
aS'-0-0'
p1167
aS'+--+'
p1168
aS'---+'
p1169
aS'-0-0'
p1170
aS'00-0'
p1171
aS'+--+'
p1172
aS'---+'
p1173
aS'---0'
p1174
aS'00-0'
p1175
aS'-0-0'
p1176
aS'+--+'
p1177
aS'---0'
p1178
aS'+--0'
p1179
aS'---0'
p1180
aS'-0-0'
p1181
aS'0--+'
p1182
aS'---0'
p1183
aS'-0-0'
p1184
aS'+--+'
p1185
aS'0--0'
p1186
aS'0-+0'
p1187
aS'---0'
p1188
aS'0-+0'
p1189
aS'-0-0'
p1190
aS'---+'
p1191
aS'---0'
p1192
aS'-0-0'
p1193
aS'+--0'
p1194
aS'---0'
p1195
aS'-0-0'
p1196
aS'+--0'
p1197
aS'---0'
p1198
aS'-0-0'
p1199
aS'+--0'
p1200
aS'---0'
p1201
aS'-0-0'
p1202
aS'+---'
p1203
aS'---0'
p1204
aS'-0-0'
p1205
aS'----'
p1206
aS'---0'
p1207
aS'----'
p1208
aS'---0'
p1209
aS'-0-0'
p1210
aS'----'
p1211
aS'---0'
p1212
aS'----'
p1213
aS'-0-0'
p1214
aS'+---'
p1215
aS'----'
p1216
aS'---0'
p1217
aS'-0-0'
p1218
aS'+---'
p1219
aS'0---'
p1220
aS'0--0'
p1221
aS'-0-0'
p1222
aS'+0-0'
p1223
aS'+---'
p1224
aS'----'
p1225
aS'+---'
p1226
aS'0---'
p1227
aS'+0-0'
p1228
aS'+---'
p1229
aS'0---'
p1230
aS'+-0-'
p1231
aS'00-0'
p1232
aS'+---'
p1233
aS'00-0'
p1234
aS'+---'
p1235
aS'+0-0'
p1236
aS'+---'
p1237
aS'+0-0'
p1238
aS'+---'
p1239
aS'00--'
p1240
aS'+-0-'
p1241
aS'+0-0'
p1242
aS'+---'
p1243
aS'+0--'
p1244
aS'+0-0'
p1245
aS'-0-0'
p1246
aS'+---'
p1247
aS'+0--'
p1248
aS'+0-0'
p1249
aS'+-+-'
p1250
aS'+---'
p1251
aS'+0-0'
p1252
aS'+---'
p1253
aS'+0--'
p1254
aS'+0-0'
p1255
aS'+---'
p1256
aS'+0--'
p1257
aS'+---'
p1258
aS'+0--'
p1259
aS'+---'
p1260
aS'+0--'
p1261
aS'+0-0'
p1262
aS'+00-'
p1263
aS'+0--'
p1264
aS'+0-0'
p1265
aS'+---'
p1266
aS'+0--'
p1267
aS'+0-0'
p1268
aS'+0--'
p1269
aS'+0-0'
p1270
aS'+0+-'
p1271
aS'+0--'
p1272
aS'+0-0'
p1273
asS'pcl_7'
p1274
(lp1275
S'0--0'
p1276
aS'---+'
p1277
aS'0--+'
p1278
aS'-0-0'
p1279
aS'---+'
p1280
aS'0--0'
p1281
aS'-0-0'
p1282
aS'+--+'
p1283
aS'---0'
p1284
aS'---+'
p1285
aS'-0-0'
p1286
aS'+--+'
p1287
aS'0--0'
p1288
aS'-0-0'
p1289
aS'+--+'
p1290
aS'0--0'
p1291
aS'---0'
p1292
aS'-0-0'
p1293
aS'+--+'
p1294
aS'---0'
p1295
aS'-0-0'
p1296
aS'+--0'
p1297
aS'---0'
p1298
aS'-0-0'
p1299
aS'---0'
p1300
aS'-0-0'
p1301
aS'---0'
p1302
aS'-0-0'
p1303
aS'+---'
p1304
aS'---0'
p1305
aS'-0-0'
p1306
aS'+---'
p1307
aS'---0'
p1308
aS'-0-0'
p1309
aS'+---'
p1310
aS'----'
p1311
aS'-0-0'
p1312
aS'----'
p1313
aS'-0-0'
p1314
aS'+---'
p1315
aS'----'
p1316
aS'---0'
p1317
aS'-0-0'
p1318
aS'+---'
p1319
aS'----'
p1320
aS'+---'
p1321
aS'+0-0'
p1322
aS'-0-0'
p1323
aS'+---'
p1324
aS'00-0'
p1325
aS'+---'
p1326
aS'+0-0'
p1327
aS'-0+0'
p1328
aS'+---'
p1329
aS'----'
p1330
aS'+---'
p1331
aS'00-0'
p1332
aS'+---'
p1333
aS'00-0'
p1334
aS'+---'
p1335
aS'+0-0'
p1336
aS'+---'
p1337
aS'+0-0'
p1338
aS'+---'
p1339
aS'00-0'
p1340
aS'+0-0'
p1341
aS'+---'
p1342
aS'+-+-'
p1343
aS'+---'
p1344
aS'+0--'
p1345
aS'+0-0'
p1346
aS'+000'
p1347
aS'+-0-'
p1348
aS'+---'
p1349
aS'-0--'
p1350
aS'+0-0'
p1351
aS'+-+-'
p1352
aS'+0-0'
p1353
aS'+---'
p1354
aS'+0--'
p1355
aS'+0-0'
p1356
aS'+---'
p1357
aS'+0--'
p1358
aS'+0-0'
p1359
aS'+---'
p1360
aS'+0--'
p1361
aS'+0-0'
p1362
aS'+0--'
p1363
aS'+0-0'
p1364
aS'+-0-'
p1365
aS'+0-0'
p1366
aS'+0--'
p1367
aS'+0+-'
p1368
aS'+0-0'
p1369
aS'+0--'
p1370
aS'+0+-'
p1371
aS'+0--'
p1372
aS'+0+0'
p1373
aS'+0-0'
p1374
aS'+0+-'
p1375
aS'+0--'
p1376
aS'+0-0'
p1377
aS'+000'
p1378
asS'pcl_6'
p1379
(lp1380
S'---0'
p1381
aS'0--0'
p1382
aS'---0'
p1383
aS'---+'
p1384
aS'---0'
p1385
aS'-0-0'
p1386
aS'+--+'
p1387
aS'---+'
p1388
aS'-0-0'
p1389
aS'---+'
p1390
aS'---0'
p1391
aS'-0-0'
p1392
aS'+--0'
p1393
aS'---0'
p1394
aS'-0-0'
p1395
aS'+-0-'
p1396
aS'---0'
p1397
aS'0--0'
p1398
aS'---0'
p1399
aS'0-00'
p1400
aS'---0'
p1401
aS'-0-0'
p1402
aS'+-+-'
p1403
aS'---0'
p1404
aS'0--0'
p1405
aS'-0-0'
p1406
aS'----'
p1407
aS'0---'
p1408
aS'-0-0'
p1409
aS'+0-0'
p1410
aS'-0-0'
p1411
aS'+---'
p1412
aS'0---'
p1413
aS'-0-0'
p1414
aS'+---'
p1415
aS'0--0'
p1416
aS'+---'
p1417
aS'0--0'
p1418
aS'+---'
p1419
aS'+0-0'
p1420
aS'+---'
p1421
aS'+0-0'
p1422
aS'+---'
p1423
aS'0---'
p1424
aS'+---'
p1425
aS'+0-0'
p1426
aS'+---'
p1427
aS'00-0'
p1428
aS'+0-0'
p1429
aS'+---'
p1430
aS'+0--'
p1431
aS'+0-0'
p1432
aS'+---'
p1433
aS'+0-0'
p1434
aS'+---'
p1435
aS'+0--'
p1436
aS'+0-0'
p1437
aS'+---'
p1438
aS'+0--'
p1439
aS'+0-0'
p1440
aS'+-0-'
p1441
aS'+---'
p1442
aS'-000'
p1443
aS'+0-0'
p1444
aS'00-0'
p1445
asS'pcl_1'
p1446
(lp1447
S'-000'
p1448
aS'+--+'
p1449
aS'---0'
p1450
aS'0--0'
p1451
aS'---+'
p1452
aS'+--+'
p1453
aS'---+'
p1454
aS'-0-0'
p1455
aS'---+'
p1456
aS'---0'
p1457
aS'-0-0'
p1458
aS'---+'
p1459
aS'---0'
p1460
aS'---+'
p1461
aS'---0'
p1462
aS'-0-0'
p1463
aS'---0'
p1464
aS'-0-0'
p1465
aS'---0'
p1466
aS'0--0'
p1467
aS'---0'
p1468
aS'-0-0'
p1469
aS'+---'
p1470
aS'0--0'
p1471
aS'---0'
p1472
aS'-0-0'
p1473
aS'+---'
p1474
aS'----'
p1475
aS'-0-0'
p1476
aS'+---'
p1477
aS'0---'
p1478
aS'----'
p1479
aS'0---'
p1480
aS'-0-0'
p1481
aS'+---'
p1482
aS'----'
p1483
aS'-0-0'
p1484
aS'+---'
p1485
aS'+--0'
p1486
aS'00-0'
p1487
aS'+---'
p1488
aS'+0-0'
p1489
aS'00-0'
p1490
aS'+-+-'
p1491
aS'+---'
p1492
aS'+0-0'
p1493
aS'+---'
p1494
aS'+0-0'
p1495
aS'+---'
p1496
aS'+0--'
p1497
aS'+---'
p1498
aS'+0--'
p1499
aS'+0-0'
p1500
aS'+---'
p1501
aS'+0--'
p1502
aS'+---'
p1503
aS'00--'
p1504
aS'+0-0'
p1505
aS'+---'
p1506
aS'+0--'
p1507
aS'+0-0'
p1508
aS'+---'
p1509
aS'+0--'
p1510
aS'+---'
p1511
aS'+0--'
p1512
aS'+0-0'
p1513
aS'+-0-'
p1514
aS'+0--'
p1515
aS'+0-0'
p1516
aS'+---'
p1517
aS'+0--'
p1518
aS'+0-0'
p1519
asS'pcl_3'
p1520
(lp1521
S'---0'
p1522
aS'-0-0'
p1523
aS'---+'
p1524
aS'---0'
p1525
aS'-0-0'
p1526
aS'+0-0'
p1527
aS'---+'
p1528
aS'---0'
p1529
aS'-0-0'
p1530
aS'---+'
p1531
aS'---0'
p1532
aS'+--0'
p1533
aS'---0'
p1534
aS'-0-0'
p1535
aS'+--0'
p1536
aS'---0'
p1537
aS'-0-0'
p1538
aS'+--0'
p1539
aS'0--0'
p1540
aS'---0'
p1541
aS'0--0'
p1542
aS'---0'
p1543
aS'-0-0'
p1544
aS'+---'
p1545
aS'---0'
p1546
aS'----'
p1547
aS'---0'
p1548
aS'-0-0'
p1549
aS'+---'
p1550
aS'+--0'
p1551
aS'-0-0'
p1552
aS'----'
p1553
aS'-0-0'
p1554
aS'+---'
p1555
aS'---0'
p1556
aS'0---'
p1557
aS'-0-0'
p1558
aS'+---'
p1559
aS'----'
p1560
aS'---0'
p1561
aS'+---'
p1562
aS'----'
p1563
aS'-0-0'
p1564
aS'+---'
p1565
aS'----'
p1566
aS'00-0'
p1567
aS'+---'
p1568
aS'+0-0'
p1569
aS'+---'
p1570
aS'+0-0'
p1571
aS'+---'
p1572
aS'+0-0'
p1573
aS'-0-0'
p1574
aS'+0-0'
p1575
aS'+---'
p1576
aS'+0-0'
p1577
aS'+---'
p1578
aS'0---'
p1579
aS'+---'
p1580
aS'+0-0'
p1581
aS'+---'
p1582
aS'+0--'
p1583
aS'+---'
p1584
aS'+0--'
p1585
aS'+0-0'
p1586
aS'+-+-'
p1587
aS'+---'
p1588
aS'0000'
p1589
aS'+---'
p1590
aS'+0-0'
p1591
aS'+-+-'
p1592
aS'+---'
p1593
aS'+0-0'
p1594
aS'+-+-'
p1595
aS'+0--'
p1596
aS'+0+-'
p1597
aS'+0--'
p1598
aS'+0-0'
p1599
aS'+0--'
p1600
aS'+000'
p1601
aS'+---'
p1602
aS'+0--'
p1603
aS'+0-0'
p1604
aS'+---'
p1605
aS'+0--'
p1606
aS'+0-0'
p1607
aS'+0+-'
p1608
aS'+0--'
p1609
aS'-00-'
p1610
aS'+0--'
p1611
asS'pcl_2'
p1612
(lp1613
S'0--0'
p1614
aS'-0-0'
p1615
aS'+--+'
p1616
aS'0--0'
p1617
aS'---0'
p1618
aS'+--+'
p1619
aS'---+'
p1620
aS'-0-0'
p1621
aS'---0'
p1622
aS'+--+'
p1623
aS'---0'
p1624
aS'0--0'
p1625
aS'---0'
p1626
aS'---+'
p1627
aS'---0'
p1628
aS'-0-0'
p1629
aS'---0'
p1630
aS'0--0'
p1631
aS'---0'
p1632
aS'-0-0'
p1633
aS'+---'
p1634
aS'---0'
p1635
aS'--00'
p1636
aS'---0'
p1637
aS'-0-0'
p1638
aS'+---'
p1639
aS'0---'
p1640
aS'---0'
p1641
aS'+---'
p1642
aS'0---'
p1643
aS'----'
p1644
aS'-0-0'
p1645
aS'+---'
p1646
aS'0---'
p1647
aS'-0-0'
p1648
aS'+---'
p1649
aS'0---'
p1650
aS'-0-0'
p1651
aS'+---'
p1652
aS'+0-0'
p1653
aS'+---'
p1654
aS'+0-0'
p1655
aS'+---'
p1656
aS'+0--'
p1657
aS'+-+-'
p1658
aS'+---'
p1659
aS'+-0-'
p1660
aS'+---'
p1661
aS'+0-0'
p1662
aS'+---'
p1663
aS'+0--'
p1664
aS'+---'
p1665
aS'+-+-'
p1666
aS'+---'
p1667
aS'+0--'
p1668
aS'+---'
p1669
aS'+0-0'
p1670
aS'--+-'
p1671
aS'+---'
p1672
aS'-0--'
p1673
aS'+0--'
p1674
aS'+0-0'
p1675
aS'+---'
p1676
aS'+0--'
p1677
aS'-0--'
p1678
aS'+0--'
p1679
aS'+0-0'
p1680
aS'+-0-'
p1681
aS'-0--'
p1682
asS'pcl_8'
p1683
(lp1684
S'-000'
p1685
aS'+--+'
p1686
aS'---+'
p1687
aS'0--0'
p1688
aS'-0-0'
p1689
aS'---+'
p1690
aS'0--+'
p1691
aS'---0'
p1692
aS'-0-0'
p1693
aS'+--+'
p1694
aS'---+'
p1695
aS'---0'
p1696
aS'0--0'
p1697
aS'---0'
p1698
aS'0--+'
p1699
aS'---+'
p1700
aS'-0-0'
p1701
aS'+--+'
p1702
aS'---0'
p1703
aS'---+'
p1704
aS'---0'
p1705
aS'-0-0'
p1706
aS'---+'
p1707
aS'---0'
p1708
aS'-0-0'
p1709
aS'---0'
p1710
aS'+--0'
p1711
aS'---0'
p1712
aS'-0-0'
p1713
aS'----'
p1714
aS'---0'
p1715
aS'-0-0'
p1716
aS'----'
p1717
aS'0---'
p1718
aS'---0'
p1719
aS'----'
p1720
aS'---0'
p1721
aS'-0-0'
p1722
aS'+---'
p1723
aS'0---'
p1724
aS'+--0'
p1725
aS'-0-0'
p1726
aS'+---'
p1727
aS'---0'
p1728
aS'-0-0'
p1729
aS'00-0'
p1730
aS'+---'
p1731
aS'00-0'
p1732
aS'+0-0'
p1733
aS'+---'
p1734
aS'00-0'
p1735
aS'+0-0'
p1736
aS'+---'
p1737
aS'+0-0'
p1738
aS'+---'
p1739
aS'0---'
p1740
aS'+---'
p1741
aS'+0-0'
p1742
aS'+-0-'
p1743
aS'+0-0'
p1744
aS'+---'
p1745
aS'+0--'
p1746
aS'+0-0'
p1747
aS'+---'
p1748
aS'+0-0'
p1749
aS'+-+-'
p1750
aS'+---'
p1751
aS'+0-0'
p1752
aS'+---'
p1753
aS'+0--'
p1754
aS'+0-0'
p1755
aS'+-+-'
p1756
aS'+0-0'
p1757
aS'+0+-'
p1758
aS'+0--'
p1759
aS'+0-0'
p1760
aS'+---'
p1761
aS'+0--'
p1762
aS'+---'
p1763
aS'+0--'
p1764
asS'pcr_11'
p1765
(lp1766
S'-0+0'
p1767
aS'--+-'
p1768
aS'-0+-'
p1769
aS'--+-'
p1770
aS'-0+0'
p1771
aS'--+-'
p1772
aS'-0+-'
p1773
aS'--+-'
p1774
aS'-0+0'
p1775
aS'--+-'
p1776
aS'-0+0'
p1777
aS'+-+-'
p1778
aS'--+-'
p1779
aS'-0+0'
p1780
aS'+-+-'
p1781
aS'--+-'
p1782
aS'-0+0'
p1783
aS'--+-'
p1784
aS'-0+0'
p1785
aS'+-+-'
p1786
aS'--+-'
p1787
aS'0-+-'
p1788
aS'--+0'
p1789
aS'--+-'
p1790
aS'-0+0'
p1791
aS'+-+-'
p1792
aS'--+-'
p1793
aS'-0+0'
p1794
aS'+-+-'
p1795
aS'-0+0'
p1796
aS'+-+-'
p1797
aS'--+0'
p1798
aS'-0+0'
p1799
aS'+-+-'
p1800
aS'+-+0'
p1801
aS'--+0'
p1802
aS'-0+0'
p1803
aS'+-+-'
p1804
aS'00+0'
p1805
aS'0-+0'
p1806
aS'+-+0'
p1807
aS'00+0'
p1808
aS'+-+-'
p1809
aS'+-+0'
p1810
aS'+0+0'
p1811
aS'+-+0'
p1812
aS'+0+0'
p1813
aS'0000'
p1814
aS'+-++'
p1815
aS'+-+0'
p1816
aS'+0+0'
p1817
aS'+-++'
p1818
aS'+-+0'
p1819
aS'+-00'
p1820
aS'+-+0'
p1821
aS'+0+0'
p1822
aS'-0+0'
p1823
aS'+0+0'
p1824
asS'rotr_1'
p1825
(lp1826
S'0000'
p1827
aS'+--+'
p1828
aS'+-0+'
p1829
aS'0000'
p1830
aS'+0-0'
p1831
aS'0000'
p1832
aS'+-0+'
p1833
aS'+--+'
p1834
aS'+0-0'
p1835
aS'+--+'
p1836
aS'+--0'
p1837
aS'+--+'
p1838
aS'0--+'
p1839
aS'+--+'
p1840
aS'---+'
p1841
aS'+--+'
p1842
aS'---+'
p1843
aS'+--+'
p1844
aS'---0'
p1845
aS'0000'
p1846
aS'+--+'
p1847
aS'---+'
p1848
aS'+--+'
p1849
aS'0000'
p1850
aS'+--+'
p1851
aS'--0+'
p1852
aS'0000'
p1853
aS'-000'
p1854
aS'+--+'
p1855
aS'-0+0'
p1856
aS'+--+'
p1857
aS'+-++'
p1858
aS'-0-0'
p1859
aS'-000'
p1860
aS'+--+'
p1861
aS'00+0'
p1862
aS'---+'
p1863
aS'-000'
p1864
aS'+-0+'
p1865
aS'---+'
p1866
aS'0-0+'
p1867
aS'0-00'
p1868
aS'-0+0'
p1869
aS'+--+'
p1870
aS'00+0'
p1871
aS'+--+'
p1872
aS'-000'
p1873
aS'-0+0'
p1874
aS'+--+'
p1875
aS'+0-0'
p1876
aS'+--+'
p1877
aS'0-++'
p1878
aS'-000'
p1879
aS'+--+'
p1880
aS'0000'
p1881
aS'-000'
p1882
aS'+--+'
p1883
aS'0-0+'
p1884
aS'0000'
p1885
aS'+0+0'
p1886
aS'+--+'
p1887
aS'+-++'
p1888
aS'+--+'
p1889
aS'0000'
p1890
aS'-0+0'
p1891
aS'+--+'
p1892
aS'+-0+'
p1893
aS'+0-0'
p1894
aS'0000'
p1895
aS'+--+'
p1896
aS'-0-0'
p1897
aS'0000'
p1898
aS'+--+'
p1899
aS'-0-0'
p1900
aS'0000'
p1901
asS'rotr_2'
p1902
(lp1903
S'+-00'
p1904
aS'0000'
p1905
aS'+--+'
p1906
aS'+-00'
p1907
aS'+-0+'
p1908
aS'--+0'
p1909
aS'0000'
p1910
aS'+-0+'
p1911
aS'+--+'
p1912
aS'+-0+'
p1913
aS'0-0+'
p1914
aS'+--+'
p1915
aS'0-00'
p1916
aS'0000'
p1917
aS'+--+'
p1918
aS'+-0+'
p1919
aS'0000'
p1920
aS'+--+'
p1921
aS'0-00'
p1922
aS'0--+'
p1923
aS'+--+'
p1924
aS'0--+'
p1925
aS'+--+'
p1926
aS'0000'
p1927
aS'+--+'
p1928
aS'+--0'
p1929
aS'+--+'
p1930
aS'---+'
p1931
aS'+--+'
p1932
aS'--0+'
p1933
aS'0-00'
p1934
aS'0000'
p1935
aS'+--+'
p1936
aS'0-0+'
p1937
aS'0000'
p1938
aS'+--+'
p1939
aS'0--+'
p1940
aS'--++'
p1941
aS'+--+'
p1942
aS'+-++'
p1943
aS'0000'
p1944
aS'-000'
p1945
aS'+--+'
p1946
aS'+-++'
p1947
aS'0--+'
p1948
aS'-000'
p1949
aS'+--+'
p1950
aS'0000'
p1951
aS'+0+0'
p1952
aS'+--+'
p1953
aS'00+0'
p1954
aS'+-0+'
p1955
aS'0000'
p1956
aS'+--+'
p1957
aS'0-++'
p1958
aS'+--+'
p1959
aS'0-00'
p1960
aS'-0+0'
p1961
aS'+--+'
p1962
asS'rotr_3'
p1963
(lp1964
S'0000'
p1965
aS'+--+'
p1966
aS'---0'
p1967
aS'0000'
p1968
aS'+--+'
p1969
aS'+-++'
p1970
aS'---+'
p1971
aS'0000'
p1972
aS'-0+0'
p1973
aS'+--+'
p1974
aS'-0+0'
p1975
aS'+--+'
p1976
aS'--0+'
p1977
aS'-0+0'
p1978
aS'+--+'
p1979
aS'---+'
p1980
aS'-0+0'
p1981
aS'+--+'
p1982
aS'0000'
p1983
aS'+--+'
p1984
aS'0--+'
p1985
aS'0-0+'
p1986
aS'-0+0'
p1987
aS'+--+'
p1988
aS'+-++'
p1989
aS'+--+'
p1990
aS'-000'
p1991
aS'+--+'
p1992
aS'0--+'
p1993
aS'0-00'
p1994
aS'+--+'
p1995
aS'+-0+'
p1996
aS'0-0+'
p1997
aS'-000'
p1998
aS'+--+'
p1999
aS'0--+'
p2000
aS'+--+'
p2001
aS'-000'
p2002
aS'+--+'
p2003
aS'+-0+'
p2004
aS'0-0+'
p2005
aS'+--+'
p2006
aS'0--+'
p2007
asS'rotr_4'
p2008
(lp2009
S'+--+'
p2010
aS'+-0+'
p2011
aS'0-00'
p2012
aS'0000'
p2013
aS'--++'
p2014
aS'+--+'
p2015
aS'-0-0'
p2016
aS'0000'
p2017
aS'+-0+'
p2018
aS'+--+'
p2019
aS'0-++'
p2020
aS'+--+'
p2021
aS'+0-0'
p2022
aS'-0+0'
p2023
aS'+--+'
p2024
aS'+0-0'
p2025
aS'-0+0'
p2026
aS'+--+'
p2027
aS'+0-0'
p2028
aS'0-0+'
p2029
aS'+--+'
p2030
aS'+0-0'
p2031
aS'0000'
p2032
aS'+--+'
p2033
aS'+-0+'
p2034
aS'0-00'
p2035
aS'0000'
p2036
aS'+--+'
p2037
aS'+-++'
p2038
aS'+--+'
p2039
aS'0--+'
p2040
aS'0000'
p2041
aS'+--+'
p2042
aS'0000'
p2043
aS'+--+'
p2044
aS'0--+'
p2045
aS'00-0'
p2046
aS'0000'
p2047
aS'+--+'
p2048
aS'---+'
p2049
aS'+--+'
p2050
aS'0000'
p2051
aS'-0+0'
p2052
aS'+--+'
p2053
aS'--0+'
p2054
aS'-0-0'
p2055
aS'+--+'
p2056
aS'--+0'
p2057
aS'0000'
p2058
aS'+0-0'
p2059
aS'+--+'
p2060
aS'+0-0'
p2061
aS'0000'
p2062
aS'+--+'
p2063
aS'+--0'
p2064
aS'+--+'
p2065
aS'0000'
p2066
aS'+0+0'
p2067
aS'+--+'
p2068
aS'00+0'
p2069
aS'0000'
p2070
aS'+--+'
p2071
aS'+0-0'
p2072
aS'+--+'
p2073
aS'+-0+'
p2074
aS'+0-0'
p2075
aS'0000'
p2076
aS'+--+'
p2077
aS'0-0+'
p2078
aS'+--+'
p2079
aS'0000'
p2080
aS'+--+'
p2081
aS'+--0'
p2082
aS'+--+'
p2083
aS'+--0'
p2084
aS'-000'
p2085
aS'+--+'
p2086
aS'+--0'
p2087
aS'+--+'
p2088
aS'0--+'
p2089
aS'+--0'
p2090
aS'0000'
p2091
aS'-0+0'
p2092
aS'0000'
p2093
aS'-000'
p2094
aS'+--+'
p2095
aS'-0+0'
p2096
aS'+--+'
p2097
aS'0--+'
p2098
aS'+--+'
p2099
aS'--+0'
p2100
aS'-000'
p2101
asS'rotr_5'
p2102
(lp2103
S'+--0'
p2104
aS'0000'
p2105
aS'+--+'
p2106
aS'+-00'
p2107
aS'+--0'
p2108
aS'--+0'
p2109
aS'0000'
p2110
aS'+--+'
p2111
aS'+-++'
p2112
aS'+-0+'
p2113
aS'+--0'
p2114
aS'+-00'
p2115
aS'+--+'
p2116
aS'+000'
p2117
aS'+--+'
p2118
aS'0000'
p2119
aS'+--+'
p2120
aS'---0'
p2121
aS'0000'
p2122
aS'+--+'
p2123
aS'0--+'
p2124
aS'+--+'
p2125
aS'-0+0'
p2126
aS'+--+'
p2127
aS'+-0+'
p2128
aS'0000'
p2129
aS'+--+'
p2130
aS'0000'
p2131
aS'+000'
p2132
aS'+--+'
p2133
aS'+0+0'
p2134
aS'0000'
p2135
aS'+--+'
p2136
aS'0000'
p2137
aS'+--+'
p2138
aS'0000'
p2139
aS'+--+'
p2140
aS'0--+'
p2141
aS'+--+'
p2142
aS'0000'
p2143
aS'+--+'
p2144
aS'0000'
p2145
aS'-0+0'
p2146
aS'+--+'
p2147
aS'-0+0'
p2148
aS'0000'
p2149
aS'-0+0'
p2150
aS'+--+'
p2151
aS'0-++'
p2152
aS'0-00'
p2153
aS'0000'
p2154
aS'00+0'
p2155
aS'+--+'
p2156
aS'+-0+'
p2157
aS'00+0'
p2158
aS'+000'
p2159
aS'+--+'
p2160
aS'+-0+'
p2161
aS'+000'
p2162
aS'0000'
p2163
aS'+--+'
p2164
aS'0000'
p2165
aS'+--+'
p2166
aS'0--+'
p2167
aS'+--+'
p2168
aS'+000'
p2169
aS'-0-0'
p2170
aS'0000'
p2171
aS'+--+'
p2172
aS'+-0+'
p2173
aS'---+'
p2174
aS'0000'
p2175
aS'+--+'
p2176
aS'-0+0'
p2177
aS'0000'
p2178
aS'+--+'
p2179
aS'-0+0'
p2180
aS'0000'
p2181
aS'+--+'
p2182
aS'+-++'
p2183
aS'0-0+'
p2184
aS'0000'
p2185
aS'+--+'
p2186
aS'0--+'
p2187
aS'0000'
p2188
aS'+--+'
p2189
aS'+-0+'
p2190
aS'+--+'
p2191
aS'0--+'
p2192
aS'00+0'
p2193
aS'+--+'
p2194
aS'0-0+'
p2195
aS'---+'
p2196
aS'+--+'
p2197
aS'+-0+'
p2198
aS'+--+'
p2199
aS'0000'
p2200
aS'-0-0'
p2201
asS'rotr_6'
p2202
(lp2203
S'+-00'
p2204
aS'0000'
p2205
aS'+--+'
p2206
aS'+-00'
p2207
aS'0000'
p2208
aS'+-++'
p2209
aS'+--+'
p2210
aS'+-00'
p2211
aS'+-++'
p2212
aS'+--+'
p2213
aS'+-0+'
p2214
aS'0000'
p2215
aS'+--+'
p2216
aS'+-0+'
p2217
aS'0000'
p2218
aS'+--+'
p2219
aS'00-0'
p2220
aS'+--+'
p2221
aS'-0-0'
p2222
aS'0000'
p2223
aS'+--+'
p2224
aS'0--+'
p2225
aS'+--+'
p2226
aS'--++'
p2227
aS'0000'
p2228
aS'+--+'
p2229
aS'--++'
p2230
aS'+--+'
p2231
aS'0-00'
p2232
aS'-000'
p2233
aS'+--+'
p2234
aS'-000'
p2235
aS'+--+'
p2236
aS'+-0+'
p2237
aS'+--+'
p2238
aS'+-0+'
p2239
aS'0-0+'
p2240
aS'-0+0'
p2241
aS'+--+'
p2242
aS'0-0+'
p2243
aS'+0+0'
p2244
aS'-000'
p2245
aS'+--+'
p2246
aS'+0+0'
p2247
aS'0000'
p2248
aS'+--+'
p2249
aS'0000'
p2250
aS'00+0'
p2251
aS'+--+'
p2252
aS'0-++'
p2253
aS'00+0'
p2254
aS'+--+'
p2255
aS'0-++'
p2256
aS'00+0'
p2257
aS'+--+'
p2258
aS'--++'
p2259
aS'+--+'
p2260
aS'-0+0'
p2261
aS'+--+'
p2262
aS'--++'
p2263
aS'-0+0'
p2264
aS'+--+'
p2265
aS'0-0+'
p2266
aS'--0+'
p2267
aS'-0+0'
p2268
asS'rotr_7'
p2269
(lp2270
S'+-00'
p2271
aS'+--+'
p2272
aS'--++'
p2273
aS'+0-0'
p2274
aS'+--+'
p2275
aS'--+0'
p2276
aS'+--+'
p2277
aS'+-0+'
p2278
aS'+--+'
p2279
aS'-0+0'
p2280
aS'+--+'
p2281
aS'+-++'
p2282
aS'+--+'
p2283
aS'00+0'
p2284
aS'+--+'
p2285
aS'0000'
p2286
aS'00-0'
p2287
aS'+--+'
p2288
aS'0--0'
p2289
aS'+0-0'
p2290
aS'+--+'
p2291
aS'00-0'
p2292
aS'-0-0'
p2293
aS'+--+'
p2294
aS'0000'
p2295
aS'+--+'
p2296
aS'0-++'
p2297
aS'+--+'
p2298
aS'+0-0'
p2299
aS'+--0'
p2300
aS'-0+0'
p2301
aS'0000'
p2302
aS'+--+'
p2303
aS'+-++'
p2304
aS'---+'
p2305
aS'0000'
p2306
aS'+--+'
p2307
aS'+-00'
p2308
aS'-0+0'
p2309
aS'+--+'
p2310
aS'-0+0'
p2311
aS'+-00'
p2312
aS'-0+0'
p2313
aS'+--+'
p2314
aS'--++'
p2315
aS'+--+'
p2316
aS'-0-0'
p2317
aS'0000'
p2318
aS'+--+'
p2319
aS'0--+'
p2320
aS'+--+'
p2321
aS'-0+0'
p2322
aS'+--+'
p2323
aS'0-00'
p2324
aS'-0-0'
p2325
aS'+-0+'
p2326
aS'0-00'
p2327
aS'+--+'
p2328
aS'0--+'
p2329
aS'-0+0'
p2330
aS'+--+'
p2331
aS'0-00'
p2332
aS'-0-0'
p2333
aS'+--+'
p2334
aS'---+'
p2335
aS'+-++'
p2336
aS'-000'
p2337
aS'-0-0'
p2338
aS'+--+'
p2339
aS'0000'
p2340
aS'+-0+'
p2341
aS'0-0+'
p2342
aS'-0+0'
p2343
aS'+--+'
p2344
aS'---+'
p2345
aS'+--+'
p2346
aS'+-0+'
p2347
aS'-000'
p2348
aS'+0+0'
p2349
aS'+--+'
p2350
aS'0000'
p2351
aS'+--+'
p2352
aS'+-++'
p2353
aS'+--+'
p2354
aS'0-+0'
p2355
aS'+0+0'
p2356
aS'00+0'
p2357
aS'+--+'
p2358
aS'+-0+'
p2359
aS'+0+0'
p2360
aS'+--+'
p2361
aS'0-0+'
p2362
aS'+-++'
p2363
aS'+-0+'
p2364
aS'-0+0'
p2365
aS'+--+'
p2366
aS'0-++'
p2367
aS'+--+'
p2368
aS'+-0+'
p2369
aS'---+'
p2370
aS'+-++'
p2371
aS'00+0'
p2372
aS'+--+'
p2373
aS'+-++'
p2374
aS'---+'
p2375
aS'00+0'
p2376
aS'-0+0'
p2377
aS'+--+'
p2378
aS'+-0+'
p2379
aS'00+0'
p2380
aS'-0+0'
p2381
asS'rotr_8'
p2382
(lp2383
S'+-00'
p2384
aS'+--0'
p2385
aS'-0+0'
p2386
aS'-0-0'
p2387
aS'+--+'
p2388
aS'0-++'
p2389
aS'0000'
p2390
aS'-0-0'
p2391
aS'+--+'
p2392
aS'--++'
p2393
aS'-0-0'
p2394
aS'+-0+'
p2395
aS'+--+'
p2396
aS'--0+'
p2397
aS'+--+'
p2398
aS'0000'
p2399
aS'-0+0'
p2400
aS'+--+'
p2401
aS'+-0+'
p2402
aS'0-00'
p2403
aS'+--+'
p2404
aS'+-0+'
p2405
aS'+--+'
p2406
aS'-0+0'
p2407
aS'+0-0'
p2408
aS'+--+'
p2409
aS'0000'
p2410
aS'+000'
p2411
aS'+--+'
p2412
aS'+0-0'
p2413
aS'0000'
p2414
aS'-0-0'
p2415
aS'+--+'
p2416
aS'0-00'
p2417
aS'+-00'
p2418
aS'0000'
p2419
aS'+--+'
p2420
aS'+-0+'
p2421
aS'+--+'
p2422
aS'-000'
p2423
aS'0000'
p2424
aS'+--+'
p2425
aS'+-++'
p2426
aS'+--+'
p2427
aS'0000'
p2428
aS'-0+0'
p2429
aS'+--+'
p2430
aS'-0+0'
p2431
aS'+--+'
p2432
aS'+-0+'
p2433
aS'+-++'
p2434
aS'0000'
p2435
aS'+000'
p2436
aS'+--+'
p2437
aS'--++'
p2438
aS'+--+'
p2439
aS'+000'
p2440
aS'+--+'
p2441
aS'--++'
p2442
aS'00+0'
p2443
aS'+--+'
p2444
aS'+-0+'
p2445
aS'00-0'
p2446
aS'0000'
p2447
aS'+--+'
p2448
aS'+-0+'
p2449
aS'0--+'
p2450
aS'0000'
p2451
aS'+--+'
p2452
aS'+-0+'
p2453
aS'0--+'
p2454
aS'+--+'
p2455
aS'+-++'
p2456
aS'0000'
p2457
aS'-0-0'
p2458
aS'+--+'
p2459
aS'+-++'
p2460
asS'pcr_10'
p2461
(lp2462
S'--+-'
p2463
aS'-0+0'
p2464
aS'--+-'
p2465
aS'-0+-'
p2466
aS'--+-'
p2467
aS'-0+0'
p2468
aS'--+-'
p2469
aS'-0+0'
p2470
aS'+-+-'
p2471
aS'--+-'
p2472
aS'-0+-'
p2473
aS'--+-'
p2474
aS'-0+0'
p2475
aS'0-+-'
p2476
aS'--+-'
p2477
aS'-0+-'
p2478
aS'-0+0'
p2479
aS'0-+-'
p2480
aS'--+-'
p2481
aS'-0+0'
p2482
aS'+-+-'
p2483
aS'--+-'
p2484
aS'-0+0'
p2485
aS'--+-'
p2486
aS'-0+0'
p2487
aS'+-+-'
p2488
aS'--+-'
p2489
aS'-0+0'
p2490
aS'--+-'
p2491
aS'-0+0'
p2492
aS'+-+-'
p2493
aS'--+-'
p2494
aS'-0+0'
p2495
aS'+-+-'
p2496
aS'0-+-'
p2497
aS'--+-'
p2498
aS'-0+0'
p2499
aS'--+-'
p2500
aS'0-+-'
p2501
aS'--+-'
p2502
aS'-0+0'
p2503
aS'+-+-'
p2504
aS'--+-'
p2505
aS'-0+0'
p2506
aS'0-+-'
p2507
aS'+-+-'
p2508
aS'--+0'
p2509
aS'+-+-'
p2510
aS'0-+0'
p2511
aS'+-+-'
p2512
aS'+-+0'
p2513
aS'-0+0'
p2514
aS'+-+-'
p2515
aS'+-+0'
p2516
aS'0-+0'
p2517
aS'+-+0'
p2518
aS'-0+0'
p2519
aS'+-+-'
p2520
aS'+-+0'
p2521
aS'00+0'
p2522
aS'+-+0'
p2523
aS'+0+0'
p2524
aS'+-++'
p2525
aS'+-+0'
p2526
aS'+0+0'
p2527
aS'+-++'
p2528
aS'+-+0'
p2529
aS'+0+0'
p2530
aS'+-++'
p2531
aS'+-+0'
p2532
aS'+-++'
p2533
aS'+0+0'
p2534
aS'+--+'
p2535
aS'+-++'
p2536
aS'+0+0'
p2537
aS'+0-0'
p2538
aS'+0+0'
p2539
aS'+-++'
p2540
aS'+0+0'
p2541
aS'-0+0'
p2542
asS'pbr_12'
p2543
(lp2544
S'---0'
p2545
aS'--00'
p2546
aS'-0+0'
p2547
aS'---0'
p2548
aS'--00'
p2549
aS'--+0'
p2550
aS'-0+0'
p2551
aS'--+0'
p2552
aS'-0+0'
p2553
aS'--0+'
p2554
aS'--+0'
p2555
aS'-0+0'
p2556
aS'--++'
p2557
aS'-0+0'
p2558
aS'--+0'
p2559
aS'-0+0'
p2560
aS'--++'
p2561
aS'--+0'
p2562
aS'-0+0'
p2563
aS'--++'
p2564
aS'-0+0'
p2565
asS'pbr_10'
p2566
(lp2567
S'-0+0'
p2568
aS'-0-0'
p2569
aS'--00'
p2570
aS'--+0'
p2571
aS'-0+0'
p2572
aS'0-00'
p2573
aS'-0+0'
p2574
aS'--+0'
p2575
aS'-0+0'
p2576
aS'+0+0'
p2577
aS'--00'
p2578
aS'--+0'
p2579
aS'--00'
p2580
aS'--+0'
p2581
aS'+-+0'
p2582
aS'-0+0'
p2583
aS'--++'
p2584
aS'--+0'
p2585
aS'-0+0'
p2586
aS'+-++'
p2587
aS'--+0'
p2588
aS'--++'
p2589
aS'--+0'
p2590
aS'-0+0'
p2591
aS'-0-0'
p2592
aS'+-++'
p2593
aS'--++'
p2594
aS'--0+'
p2595
aS'--+0'
p2596
aS'--++'
p2597
aS'--+0'
p2598
aS'-0+0'
p2599
aS'+-0+'
p2600
aS'--++'
p2601
asS'pbr_11'
p2602
(lp2603
S'--+0'
p2604
aS'-0+0'
p2605
aS'--+0'
p2606
aS'--00'
p2607
aS'--+0'
p2608
aS'-0+0'
p2609
aS'--++'
p2610
aS'--+0'
p2611
aS'--++'
p2612
aS'-0+0'
p2613
aS'--++'
p2614
aS'-0+0'
p2615
aS'--+0'
p2616
aS'-0+0'
p2617
aS'--++'
p2618
aS'--+0'
p2619
aS'-0+0'
p2620
aS'0-++'
p2621
aS'--++'
p2622
aS'--+0'
p2623
aS'-0+0'
p2624
aS'0-++'
p2625
aS'--++'
p2626
aS'--+0'
p2627
aS'-0+0'
p2628
aS'0-++'
p2629
aS'--++'
p2630
aS'-0+0'
p2631
aS'--++'
p2632
asS'rotl_2'
p2633
(lp2634
S'+-+-'
p2635
aS'0000'
p2636
aS'+-+-'
p2637
aS'----'
p2638
aS'+-+-'
p2639
aS'0000'
p2640
aS'-000'
p2641
aS'+-+-'
p2642
aS'+---'
p2643
aS'-000'
p2644
aS'+-+-'
p2645
aS'+-0-'
p2646
aS'00-0'
p2647
aS'0000'
p2648
aS'+-+-'
p2649
aS'0000'
p2650
aS'+-+-'
p2651
aS'----'
p2652
aS'0000'
p2653
aS'+-+-'
p2654
aS'--0-'
p2655
aS'+-+-'
p2656
aS'0000'
p2657
aS'0-0-'
p2658
aS'0000'
p2659
aS'-000'
p2660
aS'+-+-'
p2661
aS'0-0-'
p2662
aS'-0+0'
p2663
aS'-000'
p2664
aS'+-+-'
p2665
aS'--+-'
p2666
aS'-000'
p2667
aS'+-+-'
p2668
aS'0-00'
p2669
aS'-0+0'
p2670
aS'+-+-'
p2671
aS'0-+-'
p2672
aS'+-+-'
p2673
aS'0-0-'
p2674
aS'-000'
p2675
aS'+-+-'
p2676
aS'-000'
p2677
aS'+-+-'
p2678
aS'0-0-'
p2679
aS'+000'
p2680
aS'-000'
p2681
aS'+-+-'
p2682
aS'0000'
p2683
aS'+000'
p2684
aS'+-+-'
p2685
aS'+-00'
p2686
aS'+-+-'
p2687
aS'+-0-'
p2688
aS'+-+-'
p2689
aS'0000'
p2690
aS'+-+-'
p2691
aS'0000'
p2692
aS'+-+-'
p2693
aS'0000'
p2694
aS'-0-0'
p2695
aS'+-+-'
p2696
aS'0-0-'
p2697
aS'0000'
p2698
aS'+-+-'
p2699
aS'--+-'
p2700
aS'-000'
p2701
aS'0000'
p2702
aS'+-+-'
p2703
aS'0-+-'
p2704
aS'0000'
p2705
aS'+-+-'
p2706
aS'----'
p2707
aS'0000'
p2708
asS'rotl_3'
p2709
(lp2710
S'+-00'
p2711
aS'0-00'
p2712
aS'0000'
p2713
aS'+-+-'
p2714
aS'--0-'
p2715
aS'--00'
p2716
aS'0000'
p2717
aS'+-+-'
p2718
aS'--0-'
p2719
aS'0000'
p2720
aS'+-0-'
p2721
aS'+-+-'
p2722
aS'--00'
p2723
aS'-000'
p2724
aS'+-+-'
p2725
aS'--0-'
p2726
aS'0-+-'
p2727
aS'-000'
p2728
aS'+-+-'
p2729
aS'+-0-'
p2730
aS'+-+-'
p2731
aS'0-0-'
p2732
aS'0000'
p2733
aS'-0-0'
p2734
aS'00-0'
p2735
aS'+-+-'
p2736
aS'--0-'
p2737
aS'+-+-'
p2738
aS'+-0-'
p2739
aS'--00'
p2740
aS'-000'
p2741
aS'+-+-'
p2742
aS'-000'
p2743
aS'+-+-'
p2744
aS'0-00'
p2745
aS'+-+-'
p2746
aS'0000'
p2747
aS'-000'
p2748
aS'+-+-'
p2749
aS'0-0-'
p2750
aS'-000'
p2751
aS'+-+-'
p2752
aS'0000'
p2753
aS'+-+-'
p2754
aS'-0-0'
p2755
aS'-000'
p2756
aS'+-+-'
p2757
aS'+-0-'
p2758
aS'-000'
p2759
aS'0000'
p2760
aS'-000'
p2761
aS'+-+-'
p2762
aS'0000'
p2763
aS'-000'
p2764
aS'+-+-'
p2765
aS'-000'
p2766
aS'+-+-'
p2767
asS'rotl_1'
p2768
(lp2769
S'+-00'
p2770
aS'0000'
p2771
aS'+-+-'
p2772
aS'+--0'
p2773
aS'+-0-'
p2774
aS'+-+-'
p2775
aS'+-00'
p2776
aS'+-+-'
p2777
aS'+0+0'
p2778
aS'0000'
p2779
aS'+-+-'
p2780
aS'+0+0'
p2781
aS'0000'
p2782
aS'+-+-'
p2783
aS'0-+-'
p2784
aS'+-+-'
p2785
aS'--00'
p2786
aS'-000'
p2787
aS'0000'
p2788
aS'+-+-'
p2789
aS'--+-'
p2790
aS'+-+-'
p2791
aS'+-00'
p2792
aS'-000'
p2793
aS'+-+-'
p2794
aS'0-0-'
p2795
aS'--00'
p2796
aS'0000'
p2797
aS'+-+-'
p2798
aS'0-+-'
p2799
aS'0-00'
p2800
aS'+-+-'
p2801
aS'-0-0'
p2802
aS'+-+-'
p2803
aS'0-00'
p2804
aS'0-0-'
p2805
aS'--0-'
p2806
aS'+-+-'
p2807
aS'+-0-'
p2808
aS'+-+-'
p2809
aS'--0-'
p2810
aS'+--0'
p2811
aS'-000'
p2812
aS'+-+-'
p2813
aS'--00'
p2814
aS'+-0-'
p2815
aS'+-+-'
p2816
aS'-000'
p2817
aS'00-0'
p2818
aS'+-+-'
p2819
aS'0-0-'
p2820
aS'+-+-'
p2821
aS'+---'
p2822
aS'+-+-'
p2823
aS'0-0-'
p2824
aS'-000'
p2825
aS'-0-0'
p2826
aS'+-+-'
p2827
aS'0---'
p2828
aS'-0-0'
p2829
aS'0000'
p2830
aS'+-+-'
p2831
aS'0---'
p2832
aS'0-0-'
p2833
aS'-0-0'
p2834
aS'+-+-'
p2835
aS'0---'
p2836
aS'+-+-'
p2837
aS'-0-0'
p2838
aS'+-+-'
p2839
aS'0000'
p2840
aS'-0-0'
p2841
aS'+-+-'
p2842
aS'0000'
p2843
aS'00+0'
p2844
aS'+-+-'
p2845
aS'0000'
p2846
aS'0---'
p2847
aS'0-00'
p2848
aS'+0+0'
p2849
aS'0000'
p2850
aS'+-+-'
p2851
aS'+---'
p2852
aS'0-0-'
p2853
aS'+0+0'
p2854
aS'0000'
p2855
aS'+-+-'
p2856
aS'0000'
p2857
aS'+0+0'
p2858
aS'+-+-'
p2859
aS'0000'
p2860
aS'00+0'
p2861
aS'00-0'
p2862
aS'+-+-'
p2863
aS'--0-'
p2864
aS'+-+-'
p2865
aS'0000'
p2866
aS'-0-0'
p2867
aS'+-+-'
p2868
aS'0000'
p2869
aS'+-+-'
p2870
aS'-0-0'
p2871
aS'+-+-'
p2872
aS'---0'
p2873
aS'+-+-'
p2874
aS'0000'
p2875
aS'00-0'
p2876
aS'+-+-'
p2877
asS'rotl_6'
p2878
(lp2879
S'+-00'
p2880
aS'0000'
p2881
aS'+-+-'
p2882
aS'---0'
p2883
aS'+-00'
p2884
aS'0000'
p2885
aS'+-+-'
p2886
aS'+-00'
p2887
aS'0--0'
p2888
aS'0000'
p2889
aS'-0-0'
p2890
aS'+-+-'
p2891
aS'+-0-'
p2892
aS'+-00'
p2893
aS'0000'
p2894
aS'+-0-'
p2895
aS'0-0-'
p2896
aS'+-0-'
p2897
aS'0000'
p2898
aS'+-+-'
p2899
aS'+-0-'
p2900
aS'0000'
p2901
aS'-0+0'
p2902
aS'+-+-'
p2903
aS'0000'
p2904
aS'+-+-'
p2905
aS'0000'
p2906
aS'+-+-'
p2907
aS'-0+0'
p2908
aS'+-+-'
p2909
aS'-0+0'
p2910
aS'0000'
p2911
aS'+-+-'
p2912
aS'--+-'
p2913
aS'0000'
p2914
aS'+-+-'
p2915
aS'--+-'
p2916
aS'+-+-'
p2917
aS'0-+-'
p2918
aS'+-+-'
p2919
aS'-000'
p2920
aS'+-+-'
p2921
aS'0-+-'
p2922
aS'-0+0'
p2923
aS'+-+-'
p2924
aS'0000'
p2925
aS'----'
p2926
aS'+-+-'
p2927
aS'0-+-'
p2928
aS'----'
p2929
aS'-000'
p2930
aS'+-+-'
p2931
aS'----'
p2932
aS'+-+-'
p2933
aS'+---'
p2934
aS'0-+-'
p2935
aS'+---'
p2936
aS'-000'
p2937
aS'+-+-'
p2938
aS'+-0-'
p2939
aS'-000'
p2940
aS'+-+-'
p2941
aS'+---'
p2942
aS'+-+-'
p2943
aS'+---'
p2944
aS'-000'
p2945
aS'+-+-'
p2946
aS'+---'
p2947
aS'+-+-'
p2948
aS'+---'
p2949
aS'+-+-'
p2950
asS'rotl_7'
p2951
(lp2952
S'+-00'
p2953
aS'0000'
p2954
aS'----'
p2955
aS'--00'
p2956
aS'+-0-'
p2957
aS'0000'
p2958
aS'--0-'
p2959
aS'+-+-'
p2960
aS'0-00'
p2961
aS'0000'
p2962
aS'-0-0'
p2963
aS'+-+-'
p2964
aS'0-0-'
p2965
aS'---0'
p2966
aS'0000'
p2967
aS'+-+-'
p2968
aS'0-0-'
p2969
aS'+-0-'
p2970
aS'+-+-'
p2971
aS'-000'
p2972
aS'+0-0'
p2973
aS'+-+-'
p2974
aS'--0-'
p2975
aS'+-0-'
p2976
aS'+0-0'
p2977
aS'-000'
p2978
aS'+-+-'
p2979
aS'+0-0'
p2980
aS'0000'
p2981
aS'+0-0'
p2982
aS'+-+-'
p2983
aS'+-0-'
p2984
aS'+-+-'
p2985
aS'+0-0'
p2986
aS'+-+-'
p2987
aS'0-00'
p2988
aS'+0-0'
p2989
aS'+-+-'
p2990
aS'+-0-'
p2991
aS'+-+-'
p2992
aS'+-0-'
p2993
aS'----'
p2994
aS'+-0-'
p2995
aS'00-0'
p2996
aS'+-+-'
p2997
aS'-0-0'
p2998
aS'+-+-'
p2999
aS'----'
p3000
aS'00-0'
p3001
aS'+-+-'
p3002
aS'0-0-'
p3003
aS'-0-0'
p3004
aS'+-+-'
p3005
aS'0-0-'
p3006
aS'+-0-'
p3007
aS'-0-0'
p3008
aS'-000'
p3009
aS'+-+-'
p3010
aS'0000'
p3011
aS'+-+-'
p3012
aS'-0+0'
p3013
aS'-0-0'
p3014
aS'+-+-'
p3015
aS'--+-'
p3016
aS'+-+-'
p3017
aS'-0+0'
p3018
aS'-000'
p3019
aS'+-+-'
p3020
aS'0-0-'
p3021
aS'--+-'
p3022
aS'-000'
p3023
aS'+-+-'
p3024
aS'0-+-'
p3025
aS'0-00'
p3026
aS'0-+-'
p3027
aS'+-+-'
p3028
aS'0-+-'
p3029
aS'-0-0'
p3030
aS'+-+-'
p3031
asS'rotl_4'
p3032
(lp3033
S'0000'
p3034
aS'+-+-'
p3035
aS'+-00'
p3036
aS'+-0-'
p3037
aS'+-00'
p3038
aS'0-00'
p3039
aS'+-0-'
p3040
aS'--00'
p3041
aS'+0-0'
p3042
aS'+-+-'
p3043
aS'--0-'
p3044
aS'0000'
p3045
aS'+---'
p3046
aS'0000'
p3047
aS'0-+-'
p3048
aS'+-0-'
p3049
aS'+---'
p3050
aS'--+-'
p3051
aS'+-+-'
p3052
aS'0000'
p3053
aS'+-0-'
p3054
aS'0-0-'
p3055
aS'0-00'
p3056
aS'+---'
p3057
aS'-0-0'
p3058
aS'+-+-'
p3059
aS'+---'
p3060
aS'+-+0'
p3061
aS'00-0'
p3062
aS'+-+-'
p3063
aS'+-0-'
p3064
aS'+-+-'
p3065
aS'+0+0'
p3066
aS'+-+-'
p3067
aS'+-0-'
p3068
aS'0000'
p3069
aS'+-+-'
p3070
aS'0000'
p3071
aS'+-+-'
p3072
aS'0000'
p3073
aS'-0-0'
p3074
aS'+-+-'
p3075
aS'----'
p3076
aS'0000'
p3077
aS'-000'
p3078
aS'+-+-'
p3079
aS'0-0-'
p3080
aS'0-+-'
p3081
aS'+-+-'
p3082
aS'-0-0'
p3083
aS'-000'
p3084
aS'+-+-'
p3085
aS'----'
p3086
aS'0000'
p3087
aS'-000'
p3088
aS'+-+-'
p3089
aS'0-0-'
p3090
aS'+-+-'
p3091
aS'+-0-'
p3092
aS'-0-0'
p3093
aS'+-+-'
p3094
aS'+---'
p3095
aS'+-+-'
p3096
aS'0000'
p3097
aS'+-+-'
p3098
aS'+-0-'
p3099
aS'0000'
p3100
aS'+-+-'
p3101
aS'0---'
p3102
aS'+-+-'
p3103
aS'0000'
p3104
aS'+-+-'
p3105
aS'+-0-'
p3106
aS'00+0'
p3107
aS'0000'
p3108
aS'+-+-'
p3109
aS'0-+-'
p3110
aS'-0+0'
p3111
aS'0000'
p3112
aS'+-+-'
p3113
aS'0-+-'
p3114
aS'-0+0'
p3115
aS'0000'
p3116
aS'+-+-'
p3117
aS'0-0-'
p3118
aS'0-+-'
p3119
aS'-0+0'
p3120
aS'0000'
p3121
aS'+-+-'
p3122
aS'-000'
p3123
aS'0000'
p3124
aS'+-+-'
p3125
aS'0000'
p3126
aS'+-+-'
p3127
aS'-0-0'
p3128
aS'0000'
p3129
aS'+000'
p3130
aS'0000'
p3131
aS'+-+-'
p3132
aS'0-+-'
p3133
aS'00+0'
p3134
aS'+000'
p3135
aS'+0-0'
p3136
aS'+-+-'
p3137
aS'00-0'
p3138
aS'0000'
p3139
aS'+-+-'
p3140
aS'+-0-'
p3141
aS'0000'
p3142
aS'+-+-'
p3143
aS'0-0-'
p3144
aS'+-+-'
p3145
aS'0000'
p3146
aS'+-+-'
p3147
aS'-0-0'
p3148
aS'0000'
p3149
aS'+-+-'
p3150
aS'0---'
p3151
aS'0000'
p3152
aS'+-0-'
p3153
aS'0000'
p3154
aS'+-+-'
p3155
aS'+-0-'
p3156
aS'+0+0'
p3157
aS'0000'
p3158
aS'+-+-'
p3159
aS'0000'
p3160
aS'+-+-'
p3161
aS'+-+0'
p3162
aS'0000'
p3163
aS'+-+-'
p3164
aS'+0+0'
p3165
aS'+-+-'
p3166
aS'0000'
p3167
aS'+-+-'
p3168
aS'0000'
p3169
aS'00+0'
p3170
aS'+-+-'
p3171
aS'----'
p3172
aS'+-+-'
p3173
aS'0000'
p3174
aS'+-+-'
p3175
aS'-0-0'
p3176
aS'0000'
p3177
aS'+-+-'
p3178
aS'0-+0'
p3179
aS'+0+0'
p3180
aS'+-+-'
p3181
aS'00+0'
p3182
aS'+-+-'
p3183
aS'+0+0'
p3184
aS'+-+-'
p3185
aS'00+0'
p3186
aS'+-+-'
p3187
aS'00+0'
p3188
aS'+-+-'
p3189
aS'00+0'
p3190
aS'+-+-'
p3191
aS'00+0'
p3192
aS'+-+-'
p3193
aS'00+0'
p3194
aS'+-+-'
p3195
aS'00+0'
p3196
aS'+-+-'
p3197
aS'00+0'
p3198
aS'+-+0'
p3199
aS'00+0'
p3200
asS'rotl_5'
p3201
(lp3202
S'+-+-'
p3203
aS'+000'
p3204
aS'+-00'
p3205
aS'+-+-'
p3206
aS'+-00'
p3207
aS'0000'
p3208
aS'-000'
p3209
aS'0000'
p3210
aS'+---'
p3211
aS'+-+-'
p3212
aS'-0+0'
p3213
aS'0000'
p3214
aS'+-+-'
p3215
aS'0000'
p3216
aS'0-+-'
p3217
aS'+-+-'
p3218
aS'+-0-'
p3219
aS'-000'
p3220
aS'0000'
p3221
aS'+-+-'
p3222
aS'0-+-'
p3223
aS'0000'
p3224
aS'+0+0'
p3225
aS'+-+-'
p3226
aS'0-00'
p3227
aS'0000'
p3228
aS'+-+-'
p3229
aS'+-0-'
p3230
aS'+-+-'
p3231
aS'+-0-'
p3232
aS'0000'
p3233
aS'+-+-'
p3234
aS'+-0-'
p3235
aS'+-+-'
p3236
aS'0000'
p3237
aS'+-00'
p3238
aS'0000'
p3239
aS'+-+-'
p3240
aS'+-0-'
p3241
aS'+-+-'
p3242
aS'0000'
p3243
aS'+-+-'
p3244
aS'0000'
p3245
aS'-0-0'
p3246
aS'+-+-'
p3247
aS'--+-'
p3248
aS'+-+-'
p3249
aS'-0-0'
p3250
aS'+-+-'
p3251
aS'+-0-'
p3252
aS'+-+-'
p3253
aS'+-0-'
p3254
aS'+-+-'
p3255
aS'0000'
p3256
aS'+-+-'
p3257
aS'0000'
p3258
aS'+-+-'
p3259
aS'+-0-'
p3260
aS'+-+-'
p3261
aS'00+0'
p3262
aS'+-+-'
p3263
aS'00+0'
p3264
aS'0000'
p3265
aS'+-+-'
p3266
aS'+-+0'
p3267
aS'0000'
p3268
aS'+-+-'
p3269
aS'0-0-'
p3270
aS'0000'
p3271
aS'+-+-'
p3272
aS'0-0-'
p3273
aS'+-+-'
p3274
aS'-000'
p3275
aS'0000'
p3276
aS'+-+-'
p3277
aS'+-0-'
p3278
aS'+-+-'
p3279
aS'0000'
p3280
aS'+-+-'
p3281
aS'0-+-'
p3282
aS'+-+-'
p3283
aS'+-0-'
p3284
aS'+-+-'
p3285
aS'0-+-'
p3286
aS'0000'
p3287
aS'+-+-'
p3288
aS'0-+-'
p3289
aS'-0+0'
p3290
aS'+-+-'
p3291
aS'0-00'
p3292
aS'0000'
p3293
aS'+-+-'
p3294
aS'--+-'
p3295
aS'+-+-'
p3296
aS'--0-'
p3297
aS'+-+-'
p3298
aS'--+-'
p3299
aS'-000'
p3300
aS'+-+-'
p3301
aS'0-0-'
p3302
aS'+-0-'
p3303
aS'0-+-'
p3304
aS'0-0-'
p3305
aS'-0-0'
p3306
aS'+-+-'
p3307
aS'+-0-'
p3308
aS'0-+-'
p3309
aS'0000'
p3310
aS'+-+-'
p3311
aS'00-0'
p3312
aS'+-+-'
p3313
aS'-000'
p3314
aS'+-+-'
p3315
aS'+000'
p3316
aS'-000'
p3317
aS'+-+-'
p3318
aS'+-0-'
p3319
aS'0000'
p3320
aS'-000'
p3321
asS'pcl_11'
p3322
(lp3323
S'0--0'
p3324
aS'---+'
p3325
aS'-0-0'
p3326
aS'0--+'
p3327
aS'---+'
p3328
aS'-0-0'
p3329
aS'---+'
p3330
aS'---0'
p3331
aS'-0-0'
p3332
aS'+--+'
p3333
aS'---0'
p3334
aS'0--0'
p3335
aS'---0'
p3336
aS'-0-0'
p3337
aS'+---'
p3338
aS'0--0'
p3339
aS'---0'
p3340
aS'-0-0'
p3341
aS'+---'
p3342
aS'---0'
p3343
aS'0--0'
p3344
aS'---0'
p3345
aS'----'
p3346
aS'-0-0'
p3347
aS'+---'
p3348
aS'----'
p3349
aS'0---'
p3350
aS'-0-0'
p3351
aS'+---'
p3352
aS'0---'
p3353
aS'----'
p3354
aS'0---'
p3355
aS'----'
p3356
aS'-0-0'
p3357
aS'+---'
p3358
aS'----'
p3359
aS'+---'
p3360
aS'-0-0'
p3361
aS'+---'
p3362
aS'00-0'
p3363
aS'+---'
p3364
aS'+0-0'
p3365
aS'+---'
p3366
aS'+0-0'
p3367
aS'+---'
p3368
aS'+0-0'
p3369
aS'00-0'
p3370
aS'+---'
p3371
aS'+0--'
p3372
aS'+0-0'
p3373
aS'+-0-'
p3374
aS'0---'
p3375
aS'+---'
p3376
aS'+0-0'
p3377
aS'+-0-'
p3378
aS'+---'
p3379
aS'+0-0'
p3380
aS'+---'
p3381
aS'+0--'
p3382
aS'+---'
p3383
aS'+0--'
p3384
aS'+0-0'
p3385
aS'+---'
p3386
aS'+00-'
p3387
aS'+0-0'
p3388
aS'+---'
p3389
aS'+0-0'
p3390
aS'+-+-'
p3391
aS'+0-0'
p3392
aS'+0--'
p3393
aS'+0-0'
p3394
asS'rotl_8'
p3395
(lp3396
S'+-+-'
p3397
aS'0-0-'
p3398
aS'-000'
p3399
aS'+---'
p3400
aS'+-+-'
p3401
aS'----'
p3402
aS'+-+-'
p3403
aS'+0-0'
p3404
aS'-000'
p3405
aS'+-+-'
p3406
aS'+---'
p3407
aS'0-0-'
p3408
aS'-000'
p3409
aS'-0+0'
p3410
aS'+-+-'
p3411
aS'+---'
p3412
aS'+-0-'
p3413
aS'0000'
p3414
aS'-0-0'
p3415
aS'+-+-'
p3416
aS'0-+-'
p3417
aS'-0-0'
p3418
aS'+-+-'
p3419
asS'pcl_10'
p3420
(lp3421
S'0--0'
p3422
aS'+--0'
p3423
aS'-0-0'
p3424
aS'---+'
p3425
aS'---0'
p3426
aS'+--+'
p3427
aS'---+'
p3428
aS'-0-0'
p3429
aS'---+'
p3430
aS'---0'
p3431
aS'-0-0'
p3432
aS'---+'
p3433
aS'---0'
p3434
aS'-0-0'
p3435
aS'+--+'
p3436
aS'---+'
p3437
aS'-0-0'
p3438
aS'-0+0'
p3439
aS'+--+'
p3440
aS'---0'
p3441
aS'-0-0'
p3442
aS'---+'
p3443
aS'+-+0'
p3444
aS'0--0'
p3445
aS'---0'
p3446
aS'-0-0'
p3447
aS'+--0'
p3448
aS'---0'
p3449
aS'-0-0'
p3450
aS'+--0'
p3451
aS'---0'
p3452
aS'-0-0'
p3453
aS'+---'
p3454
aS'---0'
p3455
aS'-0-0'
p3456
aS'+---'
p3457
aS'-0-0'
p3458
aS'0---'
p3459
aS'-0-0'
p3460
aS'+---'
p3461
aS'---0'
p3462
aS'0---'
p3463
aS'---0'
p3464
aS'0---'
p3465
aS'+0-0'
p3466
aS'-0-0'
p3467
aS'+---'
p3468
aS'0---'
p3469
aS'-0-0'
p3470
aS'+---'
p3471
aS'-0-0'
p3472
aS'+---'
p3473
aS'00-0'
p3474
aS'+---'
p3475
aS'0---'
p3476
aS'00-0'
p3477
aS'+0-0'
p3478
aS'+---'
p3479
aS'+0-0'
p3480
aS'00-0'
p3481
aS'+---'
p3482
aS'+0-0'
p3483
aS'+-0-'
p3484
aS'+---'
p3485
aS'+0-0'
p3486
aS'+---'
p3487
aS'+-0-'
p3488
aS'+---'
p3489
aS'+0-0'
p3490
aS'+---'
p3491
aS'+0-0'
p3492
aS'+---'
p3493
aS'+0--'
p3494
aS'+---'
p3495
aS'+0-0'
p3496
aS'+---'
p3497
aS'0---'
p3498
aS'+0--'
p3499
aS'+---'
p3500
aS'+0-0'
p3501
aS'+-+-'
p3502
aS'+0--'
p3503
aS'+0-0'
p3504
aS'+---'
p3505
aS'+0--'
p3506
aS'+0-0'
p3507
aS'+---'
p3508
aS'+0--'
p3509
aS'+0-0'
p3510
aS'+0--'
p3511
aS'+0-0'
p3512
asS'pbl_6'
p3513
(lp3514
S'---0'
p3515
aS'-0-0'
p3516
aS'----'
p3517
aS'---0'
p3518
aS'----'
p3519
aS'-0-0'
p3520
aS'-000'
p3521
aS'0---'
p3522
aS'---0'
p3523
aS'-0-0'
p3524
aS'----'
p3525
aS'---0'
p3526
aS'0---'
p3527
aS'----'
p3528
aS'---0'
p3529
aS'-0-0'
p3530
aS'----'
p3531
aS'-0-0'
p3532
aS'----'
p3533
aS'--0-'
p3534
aS'----'
p3535
aS'-0-0'
p3536
aS'--0-'
p3537
aS'----'
p3538
asS'pbl_7'
p3539
(lp3540
S'---0'
p3541
aS'-0-0'
p3542
aS'----'
p3543
aS'---0'
p3544
aS'-0-0'
p3545
aS'0---'
p3546
aS'----'
p3547
aS'-0-0'
p3548
aS'----'
p3549
aS'---0'
p3550
aS'-0-0'
p3551
aS'---0'
p3552
aS'-0-0'
p3553
aS'0---'
p3554
aS'----'
p3555
aS'---0'
p3556
aS'-0-0'
p3557
aS'----'
p3558
aS'-0-0'
p3559
aS'----'
p3560
aS'---0'
p3561
aS'-0-0'
p3562
aS'----'
p3563
aS'-0-0'
p3564
aS'+-+-'
p3565
aS'----'
p3566
aS'+0+0'
p3567
aS'-0-0'
p3568
aS'+---'
p3569
asS'pbl_4'
p3570
(lp3571
S'---0'
p3572
aS'----'
p3573
aS'--00'
p3574
aS'-0-0'
p3575
aS'----'
p3576
aS'--0-'
p3577
aS'-0-0'
p3578
aS'----'
p3579
aS'-0-0'
p3580
aS'--0-'
p3581
aS'----'
p3582
aS'-0-0'
p3583
aS'--+-'
p3584
aS'----'
p3585
aS'---0'
p3586
aS'-0-0'
p3587
aS'----'
p3588
aS'---0'
p3589
aS'----'
p3590
aS'-0-0'
p3591
aS'0-0-'
p3592
aS'-0-0'
p3593
aS'----'
p3594
aS'---0'
p3595
aS'-0-0'
p3596
aS'----'
p3597
aS'--0-'
p3598
aS'-0-0'
p3599
aS'----'
p3600
aS'---0'
p3601
aS'----'
p3602
aS'--0-'
p3603
aS'-0-0'
p3604
aS'----'
p3605
asS'pbl_5'
p3606
(lp3607
S'----'
p3608
aS'---0'
p3609
aS'-0-0'
p3610
aS'----'
p3611
aS'---0'
p3612
aS'----'
p3613
aS'---0'
p3614
aS'----'
p3615
aS'---0'
p3616
aS'-0-0'
p3617
aS'+---'
p3618
aS'----'
p3619
aS'-0-0'
p3620
aS'----'
p3621
aS'---0'
p3622
aS'----'
p3623
aS'---0'
p3624
aS'----'
p3625
aS'-0-0'
p3626
aS'0---'
p3627
aS'---0'
p3628
aS'----'
p3629
aS'---0'
p3630
aS'-0-0'
p3631
aS'----'
p3632
aS'-0-0'
p3633
aS'----'
p3634
asS'pbl_2'
p3635
(lp3636
S'-0-0'
p3637
aS'----'
p3638
aS'-0-0'
p3639
aS'----'
p3640
aS'-0-0'
p3641
aS'0---'
p3642
aS'----'
p3643
aS'-0-0'
p3644
aS'-000'
p3645
aS'----'
p3646
aS'-0-0'
p3647
aS'----'
p3648
aS'--+-'
p3649
aS'----'
p3650
aS'-0-0'
p3651
aS'----'
p3652
asS'pbl_3'
p3653
(lp3654
S'00+0'
p3655
aS'0-+-'
p3656
aS'000-'
p3657
aS'----'
p3658
aS'0000'
p3659
aS'+-+-'
p3660
aS'----'
p3661
aS'000-'
p3662
aS'+-+-'
p3663
aS'-0--'
p3664
aS'+-+-'
p3665
aS'-0-0'
p3666
aS'+-+-'
p3667
aS'----'
p3668
aS'0-0-'
p3669
aS'-0-0'
p3670
aS'+-+-'
p3671
aS'----'
p3672
aS'0000'
p3673
aS'0-0-'
p3674
aS'0-+-'
p3675
aS'-0-0'
p3676
aS'+-+-'
p3677
aS'-0--'
p3678
aS'00-0'
p3679
aS'+-+-'
p3680
aS'+---'
p3681
aS'--+-'
p3682
aS'0---'
p3683
aS'--+-'
p3684
aS'000-'
p3685
aS'0-0-'
p3686
aS'--+-'
p3687
aS'-0-0'
p3688
aS'--+-'
p3689
aS'0-0-'
p3690
aS'-0--'
p3691
aS'-0-0'
p3692
aS'+-+-'
p3693
aS'+---'
p3694
aS'00--'
p3695
aS'00-0'
p3696
aS'+-+-'
p3697
aS'--+-'
p3698
aS'0---'
p3699
aS'-0-0'
p3700
aS'+-+-'
p3701
aS'0-0-'
p3702
aS'0-+-'
p3703
aS'--0-'
p3704
aS'0-0-'
p3705
aS'00--'
p3706
aS'-0-0'
p3707
aS'--+-'
p3708
aS'00--'
p3709
aS'-0-0'
p3710
aS'-0+0'
p3711
aS'+-+-'
p3712
aS'+---'
p3713
aS'-0-0'
p3714
aS'00-0'
p3715
aS'+-+-'
p3716
aS'--+-'
p3717
aS'-0-0'
p3718
aS'+---'
p3719
aS'0-0-'
p3720
aS'+-0-'
p3721
aS'--+-'
p3722
aS'-0-0'
p3723
aS'--+-'
p3724
aS'0-0-'
p3725
aS'-0--'
p3726
aS'-0-0'
p3727
aS'+---'
p3728
aS'0-0-'
p3729
aS'0---'
p3730
aS'00-0'
p3731
aS'+0-0'
p3732
aS'00-0'
p3733
aS'+-+-'
p3734
aS'0---'
p3735
aS'+-0-'
p3736
aS'0-0-'
p3737
aS'--+-'
p3738
aS'000-'
p3739
aS'-0-0'
p3740
aS'-0+0'
p3741
aS'0-+-'
p3742
aS'0-0-'
p3743
aS'--+-'
p3744
aS'0-0-'
p3745
aS'+0--'
p3746
aS'--0-'
p3747
aS'-0+-'
p3748
aS'-0-0'
p3749
aS'--+-'
p3750
aS'000-'
p3751
aS'-00-'
p3752
aS'000-'
p3753
aS'+0-0'
p3754
aS'0-+-'
p3755
aS'-0+-'
p3756
aS'-0-0'
p3757
aS'0-+-'
p3758
aS'-0+-'
p3759
aS'00+-'
p3760
aS'000-'
p3761
aS'-0+-'
p3762
aS'--+-'
p3763
aS'-00-'
p3764
aS'-0+-'
p3765
aS'-00-'
p3766
aS'-0-0'
p3767
aS'0-+-'
p3768
aS'-00-'
p3769
aS'-0-0'
p3770
aS'0-+-'
p3771
aS'--0-'
p3772
aS'-0--'
p3773
aS'0-+-'
p3774
aS'-00-'
p3775
aS'0-+-'
p3776
aS'000-'
p3777
aS'-0-0'
p3778
aS'0-+-'
p3779
aS'+0--'
p3780
aS'-0--'
p3781
aS'+-+-'
p3782
aS'-0--'
p3783
aS'00+-'
p3784
aS'-0-0'
p3785
aS'00-0'
p3786
aS'+-+-'
p3787
aS'-00-'
p3788
aS'00-0'
p3789
aS'+-+-'
p3790
aS'00-0'
p3791
aS'00+-'
p3792
aS'000-'
p3793
aS'+---'
p3794
aS'00-0'
p3795
aS'+0-0'
p3796
aS'00-0'
p3797
asS'pbl_1'
p3798
(lp3799
S'-0-0'
p3800
aS'----'
p3801
aS'-0-0'
p3802
aS'0---'
p3803
aS'----'
p3804
aS'-0-0'
p3805
aS'--0-'
p3806
aS'----'
p3807
aS'---0'
p3808
aS'-0-0'
p3809
aS'0---'
p3810
aS'----'
p3811
aS'-0-0'
p3812
aS'----'
p3813
aS'-0-0'
p3814
aS'----'
p3815
aS'-0-0'
p3816
aS'0---'
p3817
aS'----'
p3818
aS'---0'
p3819
aS'-0-0'
p3820
aS'+-+-'
p3821
aS'----'
p3822
aS'-0-0'
p3823
aS'+-+-'
p3824
aS'----'
p3825
aS'-0-0'
p3826
aS'0---'
p3827
aS'----'
p3828
asS'pcr_7'
p3829
(lp3830
S'-0-0'
p3831
aS'-000'
p3832
aS'+-+-'
p3833
aS'--+-'
p3834
aS'-000'
p3835
aS'--+-'
p3836
aS'-0+-'
p3837
aS'--+-'
p3838
aS'-0+0'
p3839
aS'--+-'
p3840
aS'-0+0'
p3841
aS'--+-'
p3842
aS'-0+0'
p3843
aS'--+-'
p3844
aS'-0+0'
p3845
aS'--+-'
p3846
aS'-0+0'
p3847
aS'+-+-'
p3848
aS'--+-'
p3849
aS'-0+0'
p3850
aS'--+-'
p3851
aS'-0+0'
p3852
aS'--+-'
p3853
aS'-0+0'
p3854
aS'--+-'
p3855
aS'+-+-'
p3856
aS'0-+-'
p3857
aS'-0+0'
p3858
aS'+-+-'
p3859
aS'0-+-'
p3860
aS'+-+-'
p3861
aS'0-+0'
p3862
aS'-0+0'
p3863
aS'+-+-'
p3864
aS'+-+0'
p3865
aS'0-+0'
p3866
aS'00+0'
p3867
aS'+-+-'
p3868
aS'+-+0'
p3869
aS'+0+0'
p3870
aS'+-+0'
p3871
aS'+0+0'
p3872
aS'+-+0'
p3873
aS'+0+0'
p3874
aS'+-+0'
p3875
aS'+0+0'
p3876
aS'00+0'
p3877
aS'+0+0'
p3878
aS'+-++'
p3879
aS'+-+0'
p3880
aS'+0+0'
p3881
aS'+-+0'
p3882
aS'0--0'
p3883
aS'+0+0'
p3884
aS'+-++'
p3885
aS'+-+0'
p3886
aS'0--0'
p3887
aS'+-+0'
p3888
aS'+0+0'
p3889
aS'+-++'
p3890
aS'+-+0'
p3891
aS'+0+0'
p3892
aS'+-++'
p3893
aS'+0+0'
p3894
aS'00+0'
p3895
aS'+-++'
p3896
aS'+-+0'
p3897
aS'00+0'
p3898
aS'+0+0'
p3899
aS'+-++'
p3900
aS'+0+0'
p3901
asS'pcr_6'
p3902
(lp3903
S'-0+0'
p3904
aS'0-+-'
p3905
aS'--+-'
p3906
aS'-0+0'
p3907
aS'--+-'
p3908
aS'-0+0'
p3909
aS'--+-'
p3910
aS'-0+0'
p3911
aS'--+-'
p3912
aS'-0+0'
p3913
aS'--+-'
p3914
aS'0-+-'
p3915
aS'--+-'
p3916
aS'-0+0'
p3917
aS'+-+-'
p3918
aS'-0+0'
p3919
aS'+-+-'
p3920
aS'0-+-'
p3921
aS'--+-'
p3922
aS'+-+-'
p3923
aS'0-+-'
p3924
aS'-0+0'
p3925
aS'+-+-'
p3926
aS'--+0'
p3927
aS'00+0'
p3928
aS'+-+-'
p3929
aS'--+-'
p3930
aS'00+0'
p3931
aS'+-+-'
p3932
aS'0-+-'
p3933
aS'+-+0'
p3934
aS'+-+-'
p3935
aS'+-+0'
p3936
aS'-0+0'
p3937
aS'+-+0'
p3938
aS'+0+0'
p3939
aS'+-+0'
p3940
aS'0-+0'
p3941
aS'+0+0'
p3942
aS'+-++'
p3943
aS'+-+0'
p3944
aS'+-++'
p3945
aS'+-+0'
p3946
aS'--++'
p3947
aS'+0+0'
p3948
aS'-000'
p3949
aS'+0+0'
p3950
aS'00+0'
p3951
asS'pcr_5'
p3952
(lp3953
S'-0+0'
p3954
aS'0-+-'
p3955
aS'--+-'
p3956
aS'-0+0'
p3957
aS'--+-'
p3958
aS'-0+0'
p3959
aS'--+-'
p3960
aS'-0+0'
p3961
aS'--+-'
p3962
aS'-0+0'
p3963
aS'+-+-'
p3964
aS'--+-'
p3965
aS'-0+0'
p3966
aS'+-+-'
p3967
aS'--+-'
p3968
aS'-0+0'
p3969
aS'+-+-'
p3970
aS'--+-'
p3971
aS'-0+0'
p3972
aS'+-+-'
p3973
aS'0-+-'
p3974
aS'+-+0'
p3975
aS'00+0'
p3976
aS'-0+0'
p3977
aS'+0+0'
p3978
aS'+-+-'
p3979
aS'+-+0'
p3980
aS'00+0'
p3981
aS'+0+0'
p3982
aS'+-+0'
p3983
aS'0-+0'
p3984
aS'+-+0'
p3985
aS'+0+0'
p3986
aS'+-+0'
p3987
aS'+0+0'
p3988
aS'+-+0'
p3989
aS'+0+0'
p3990
aS'+-++'
p3991
aS'+-+0'
p3992
aS'+0+0'
p3993
aS'00+0'
p3994
aS'+0+0'
p3995
aS'00+0'
p3996
aS'+0+0'
p3997
asS'pcl_12'
p3998
(lp3999
S'---0'
p4000
aS'0--0'
p4001
aS'-0-0'
p4002
aS'+--+'
p4003
aS'0--0'
p4004
aS'---0'
p4005
aS'0--0'
p4006
aS'-0-0'
p4007
aS'---0'
p4008
aS'-0-0'
p4009
aS'+--0'
p4010
aS'---0'
p4011
aS'-0-0'
p4012
aS'+---'
p4013
aS'---0'
p4014
aS'-0-0'
p4015
aS'----'
p4016
aS'---0'
p4017
aS'-0-0'
p4018
aS'+---'
p4019
aS'----'
p4020
aS'---0'
p4021
aS'+---'
p4022
aS'-0-0'
p4023
aS'----'
p4024
aS'0---'
p4025
aS'-0-0'
p4026
aS'+---'
p4027
aS'0---'
p4028
aS'0--0'
p4029
aS'0---'
p4030
aS'00-0'
p4031
aS'-0-0'
p4032
aS'+---'
p4033
aS'+--0'
p4034
aS'+0-0'
p4035
aS'+---'
p4036
aS'+0-0'
p4037
aS'+---'
p4038
aS'+0-0'
p4039
aS'+---'
p4040
aS'+0--'
p4041
aS'+---'
p4042
aS'+0--'
p4043
aS'+0-0'
p4044
aS'+---'
p4045
aS'+0-0'
p4046
aS'+---'
p4047
aS'+0-0'
p4048
aS'+---'
p4049
aS'+0--'
p4050
aS'+0-0'
p4051
aS'+---'
p4052
aS'+0--'
p4053
asS'pcr_3'
p4054
(lp4055
S'-0+0'
p4056
aS'+-+-'
p4057
aS'+---'
p4058
aS'--+-'
p4059
aS'0-+-'
p4060
asS'pcr_2'
p4061
(lp4062
S'+-+-'
p4063
aS'-0+0'
p4064
aS'0-+-'
p4065
aS'--+-'
p4066
aS'-0+0'
p4067
aS'--+-'
p4068
aS'-0+0'
p4069
aS'--+-'
p4070
aS'-0+0'
p4071
aS'0-+-'
p4072
aS'--+-'
p4073
aS'-0+0'
p4074
aS'--+-'
p4075
aS'-0+0'
p4076
aS'--+-'
p4077
aS'-0+0'
p4078
aS'+-+-'
p4079
aS'--+-'
p4080
aS'-0+0'
p4081
aS'+-+-'
p4082
aS'--+-'
p4083
aS'-0+0'
p4084
aS'--+-'
p4085
aS'0-+-'
p4086
aS'-0+0'
p4087
aS'--+-'
p4088
aS'0-+-'
p4089
aS'--+-'
p4090
aS'-0+0'
p4091
aS'+-+-'
p4092
aS'--+-'
p4093
aS'+-+-'
p4094
aS'-0+0'
p4095
aS'+-+-'
p4096
aS'+-+0'
p4097
aS'00+0'
p4098
aS'+-+-'
p4099
aS'+-+0'
p4100
aS'+0+0'
p4101
aS'+-+0'
p4102
aS'+--0'
p4103
aS'+0+0'
p4104
aS'+-++'
p4105
aS'+0+0'
p4106
aS'+-+0'
p4107
aS'+0+0'
p4108
aS'+-++'
p4109
aS'+0+0'
p4110
aS'+-+0'
p4111
aS'+0+0'
p4112
aS'+--+'
p4113
aS'+-++'
p4114
aS'+-+0'
p4115
aS'+0+0'
p4116
aS'+-+0'
p4117
aS'+0+0'
p4118
aS'+-++'
p4119
aS'+-+0'
p4120
aS'+0+0'
p4121
aS'+-0+'
p4122
aS'+-++'
p4123
aS'+-+0'
p4124
aS'+0+0'
p4125
aS'00+0'
p4126
asS'pbl_8'
p4127
(lp4128
S'-0-0'
p4129
aS'-000'
p4130
aS'+---'
p4131
aS'----'
p4132
aS'-0-0'
p4133
aS'----'
p4134
aS'---0'
p4135
aS'-0-0'
p4136
aS'----'
p4137
aS'---0'
p4138
aS'-0-0'
p4139
aS'----'
p4140
aS'-0-0'
p4141
aS'----'
p4142
aS'-0-0'
p4143
aS'-000'
p4144
aS'----'
p4145
aS'-0-0'
p4146
aS'----'
p4147
aS'---0'
p4148
asS'pcr_8'
p4149
(lp4150
S'-0+0'
p4151
aS'+-+-'
p4152
aS'--+-'
p4153
aS'-0+0'
p4154
aS'--+-'
p4155
aS'-0+0'
p4156
aS'+-+-'
p4157
aS'--+-'
p4158
aS'-0+0'
p4159
aS'--+-'
p4160
aS'-0+0'
p4161
aS'--+-'
p4162
aS'-0+0'
p4163
aS'+-+-'
p4164
aS'--+-'
p4165
aS'0-+-'
p4166
aS'-0+0'
p4167
aS'0-+-'
p4168
aS'-0+0'
p4169
aS'+-+-'
p4170
aS'--+-'
p4171
aS'-0+0'
p4172
aS'+-+-'
p4173
aS'--+-'
p4174
aS'-0+0'
p4175
aS'--+-'
p4176
aS'00+0'
p4177
aS'-0+0'
p4178
aS'+-+-'
p4179
aS'+-+0'
p4180
aS'0-+0'
p4181
aS'+-+0'
p4182
aS'00+0'
p4183
aS'-0+0'
p4184
aS'00+0'
p4185
aS'+-+0'
p4186
aS'+--0'
p4187
aS'+-+0'
p4188
aS'+0+0'
p4189
aS'+-++'
p4190
aS'+-+0'
p4191
aS'+-++'
p4192
aS'+0+0'
p4193
aS'+-++'
p4194
aS'00-0'
p4195
aS'+-++'
p4196
aS'+0+0'
p4197
aS'+-++'
p4198
aS'-000'
p4199
asS'u_3'
p4200
(lp4201
S'0000'
p4202
asS'u_2'
p4203
(lp4204
S'0000'
p4205
aS'+-+-'
p4206
aS'+-+0'
p4207
aS'---0'
p4208
aS'0000'
p4209
aS'+-+-'
p4210
aS'---0'
p4211
aS'+-+0'
p4212
aS'0000'
p4213
aS'+-+-'
p4214
aS'0-00'
p4215
aS'-0-0'
p4216
aS'+-+-'
p4217
aS'--0-'
p4218
aS'---0'
p4219
aS'+-+-'
p4220
aS'----'
p4221
aS'-000'
p4222
aS'+-+-'
p4223
aS'+-0-'
p4224
aS'---0'
p4225
aS'+-+-'
p4226
aS'+-0-'
p4227
aS'-0-0'
p4228
aS'-000'
p4229
aS'+-+-'
p4230
aS'----'
p4231
aS'+-+-'
p4232
aS'----'
p4233
aS'+-0-'
p4234
aS'--0-'
p4235
aS'-0-0'
p4236
aS'0---'
p4237
aS'0-0-'
p4238
aS'---0'
p4239
aS'-0-0'
p4240
aS'+-0-'
p4241
aS'0-0-'
p4242
aS'+-0-'
p4243
aS'-0-0'
p4244
aS'+-0-'
p4245
aS'0-0-'
p4246
aS'----'
p4247
aS'-000'
p4248
aS'-0-0'
p4249
aS'+-+-'
p4250
aS'0-0-'
p4251
aS'-000'
p4252
aS'+-0-'
p4253
aS'--00'
p4254
aS'0-0-'
p4255
aS'0-+-'
p4256
aS'--0-'
p4257
aS'-000'
p4258
aS'+-+-'
p4259
aS'-000'
p4260
aS'-0+0'
p4261
aS'-000'
p4262
aS'+-+-'
p4263
aS'0-+-'
p4264
aS'0-0-'
p4265
aS'--00'
p4266
aS'0-0-'
p4267
aS'--+-'
p4268
aS'+-+-'
p4269
aS'-000'
p4270
aS'+-+-'
p4271
aS'0-0-'
p4272
aS'0-+0'
p4273
aS'0-0-'
p4274
aS'0-+-'
p4275
aS'0-0-'
p4276
aS'--+-'
p4277
aS'+-0-'
p4278
aS'0-+-'
p4279
aS'-000'
p4280
aS'+-+-'
p4281
aS'--00'
p4282
aS'--0-'
p4283
aS'+-+-'
p4284
aS'--0-'
p4285
aS'--00'
p4286
aS'-000'
p4287
aS'+-+-'
p4288
aS'0-0-'
p4289
aS'--00'
p4290
aS'-000'
p4291
aS'+-+-'
p4292
aS'+-0-'
p4293
aS'-000'
p4294
aS'+-+-'
p4295
aS'--0-'
p4296
aS'+-0-'
p4297
aS'--0-'
p4298
aS'+---'
p4299
aS'-000'
p4300
aS'-0-0'
p4301
aS'+-+-'
p4302
aS'0-+-'
p4303
aS'0-0-'
p4304
aS'+-+-'
p4305
aS'--0-'
p4306
aS'-000'
p4307
aS'+-+-'
p4308
aS'--0-'
p4309
aS'---0'
p4310
aS'+-+-'
p4311
aS'--0-'
p4312
aS'-0-0'
p4313
aS'+-+-'
p4314
aS'-0-0'
p4315
aS'+-+-'
p4316
aS'--00'
p4317
aS'0-+-'
p4318
aS'0-0-'
p4319
aS'0-+-'
p4320
aS'-000'
p4321
aS'----'
p4322
aS'-000'
p4323
aS'+-+-'
p4324
aS'-000'
p4325
aS'0-0-'
p4326
aS'+-+-'
p4327
aS'---0'
p4328
aS'+-+-'
p4329
aS'0-+-'
p4330
aS'---0'
p4331
aS'-0-0'
p4332
aS'+-+-'
p4333
aS'-000'
p4334
aS'0-+-'
p4335
aS'-0-0'
p4336
aS'+-+-'
p4337
aS'-000'
p4338
aS'0-+-'
p4339
aS'+-0-'
p4340
aS'0-0-'
p4341
aS'-0-0'
p4342
aS'+-+-'
p4343
aS'--00'
p4344
aS'0---'
p4345
aS'0-0-'
p4346
aS'-0-0'
p4347
aS'+-+-'
p4348
aS'-000'
p4349
aS'0-+-'
p4350
aS'0-0-'
p4351
aS'+-+-'
p4352
aS'--0-'
p4353
aS'+-0-'
p4354
aS'-0-0'
p4355
aS'+-+-'
p4356
aS'0-0-'
p4357
aS'--00'
p4358
aS'0-+-'
p4359
aS'00-0'
p4360
aS'+-+-'
p4361
aS'0-+-'
p4362
aS'--0-'
p4363
aS'0-0-'
p4364
aS'-0-0'
p4365
asS'u_1'
p4366
(lp4367
S'-0+0'
p4368
aS'-0-0'
p4369
aS'-0+0'
p4370
aS'-0-0'
p4371
aS'-0+0'
p4372
aS'-0-0'
p4373
aS'-0+0'
p4374
aS'+0+0'
p4375
aS'-0-0'
p4376
aS'-0+0'
p4377
aS'+0+0'
p4378
aS'-0+0'
p4379
aS'-000'
p4380
aS'-0+0'
p4381
aS'-0-0'
p4382
aS'-0+0'
p4383
aS'-000'
p4384
asS'u_7'
p4385
(lp4386
S'-0-0'
p4387
aS'-0+0'
p4388
aS'-0-0'
p4389
aS'-0+0'
p4390
aS'-0-0'
p4391
aS'-000'
p4392
aS'-0-0'
p4393
aS'+000'
p4394
aS'-0-0'
p4395
aS'+000'
p4396
aS'-0-0'
p4397
aS'-000'
p4398
aS'-0-0'
p4399
aS'+0+0'
p4400
aS'-0-0'
p4401
aS'00+0'
p4402
aS'-0-0'
p4403
aS'+0+0'
p4404
aS'-0-0'
p4405
aS'+0+0'
p4406
aS'-0-0'
p4407
aS'+0+0'
p4408
aS'-0-0'
p4409
aS'+0+0'
p4410
aS'-0-0'
p4411
aS'+0+0'
p4412
aS'00-0'
p4413
aS'+0+0'
p4414
aS'00+0'
p4415
aS'0000'
p4416
aS'+0+0'
p4417
aS'0000'
p4418
aS'+0+0'
p4419
aS'00+0'
p4420
aS'0000'
p4421
aS'+0+0'
p4422
aS'0000'
p4423
aS'00+0'
p4424
aS'+000'
p4425
aS'00+0'
p4426
asS'u_6'
p4427
(lp4428
S'-0+0'
p4429
asS'u_5'
p4430
(lp4431
S'0000'
p4432
asS'u_4'
p4433
(lp4434
S'-000'
p4435
aS'-0+0'
p4436
aS'-0-0'
p4437
aS'-0+0'
p4438
aS'-000'
p4439
aS'-0+0'
p4440
aS'-000'
p4441
aS'-0+0'
p4442
aS'-000'
p4443
aS'-0+0'
p4444
aS'-000'
p4445
aS'-0-0'
p4446
aS'-000'
p4447
aS'-0+0'
p4448
aS'-000'
p4449
aS'-0+0'
p4450
aS'-0-0'
p4451
aS'-0+0'
p4452
aS'-000'
p4453
aS'-0-0'
p4454
aS'-000'
p4455
aS'-0-0'
p4456
aS'-000'
p4457
aS'-0-0'
p4458
aS'-000'
p4459
aS'-0-0'
p4460
aS'-000'
p4461
aS'-0+0'
p4462
aS'0000'
p4463
aS'-0+0'
p4464
aS'-000'
p4465
aS'-0+0'
p4466
aS'-000'
p4467
aS'00-0'
p4468
aS'-000'
p4469
aS'00-0'
p4470
aS'-000'
p4471
aS'-0-0'
p4472
aS'-000'
p4473
aS'00-0'
p4474
aS'-000'
p4475
aS'00+0'
p4476
aS'-0+0'
p4477
aS'-000'
p4478
aS'+0+0'
p4479
aS'00+0'
p4480
aS'-000'
p4481
aS'+0+0'
p4482
aS'+0-0'
p4483
aS'-0+0'
p4484
aS'-000'
p4485
aS'+0-0'
p4486
aS'+0+0'
p4487
aS'-000'
p4488
aS'+0+0'
p4489
aS'-000'
p4490
aS'+0-0'
p4491
aS'+0+0'
p4492
aS'-000'
p4493
aS'+0+0'
p4494
aS'+000'
p4495
aS'0000'
p4496
aS'+0-0'
p4497
aS'0000'
p4498
aS'+0+0'
p4499
aS'0000'
p4500
aS'+0-0'
p4501
aS'0000'
p4502
aS'+0+0'
p4503
aS'0000'
p4504
aS'00-0'
p4505
aS'+000'
p4506
aS'0000'
p4507
aS'+0-0'
p4508
aS'0000'
p4509
aS'+0+0'
p4510
aS'0000'
p4511
aS'+0+0'
p4512
aS'00-0'
p4513
aS'0000'
p4514
aS'00-0'
p4515
aS'0000'
p4516
aS'+0+0'
p4517
aS'0000'
p4518
aS'00-0'
p4519
aS'0000'
p4520
aS'+0+0'
p4521
aS'0000'
p4522
aS'00-0'
p4523
aS'00+0'
p4524
asS'u_8'
p4525
(lp4526
S'-0-0'
p4527
aS'-0+0'
p4528
aS'-0-0'
p4529
as.